
WIGY.elf:     file format elf32-littlearm

Sections:
Idx Name          Size      VMA       LMA       File off  Algn
  0 .isr_vector   000000b8  08000000  08000000  00001000  2**0
                  CONTENTS, ALLOC, LOAD, READONLY, DATA
  1 .text         00001a80  080000b8  080000b8  000010b8  2**2
                  CONTENTS, ALLOC, LOAD, READONLY, CODE
  2 .rodata       00000074  08001b38  08001b38  00002b38  2**2
                  CONTENTS, ALLOC, LOAD, READONLY, DATA
  3 .ARM.extab    00000000  08001bac  08001bac  0000300c  2**0
                  CONTENTS
  4 .ARM          00000000  08001bac  08001bac  0000300c  2**0
                  CONTENTS
  5 .preinit_array 00000000  08001bac  08001bac  0000300c  2**0
                  CONTENTS, ALLOC, LOAD, DATA
  6 .init_array   00000004  08001bac  08001bac  00002bac  2**2
                  CONTENTS, ALLOC, LOAD, READONLY, DATA
  7 .fini_array   00000004  08001bb0  08001bb0  00002bb0  2**2
                  CONTENTS, ALLOC, LOAD, READONLY, DATA
  8 .data         0000000c  20000000  08001bb4  00003000  2**2
                  CONTENTS, ALLOC, LOAD, DATA
  9 .bss          0000004c  2000000c  08001bc0  0000300c  2**2
                  ALLOC
 10 ._user_heap_stack 00000600  20000058  08001bc0  00003058  2**0
                  ALLOC
 11 .ARM.attributes 00000028  00000000  00000000  0000300c  2**0
                  CONTENTS, READONLY
 12 .debug_info   00004077  00000000  00000000  00003034  2**0
                  CONTENTS, READONLY, DEBUGGING, OCTETS
 13 .debug_abbrev 000013b2  00000000  00000000  000070ab  2**0
                  CONTENTS, READONLY, DEBUGGING, OCTETS
 14 .debug_aranges 00000510  00000000  00000000  00008460  2**3
                  CONTENTS, READONLY, DEBUGGING, OCTETS
 15 .debug_rnglists 000003aa  00000000  00000000  00008970  2**0
                  CONTENTS, READONLY, DEBUGGING, OCTETS
 16 .debug_macro  0001301b  00000000  00000000  00008d1a  2**0
                  CONTENTS, READONLY, DEBUGGING, OCTETS
 17 .debug_line   000062dc  00000000  00000000  0001bd35  2**0
                  CONTENTS, READONLY, DEBUGGING, OCTETS
 18 .debug_str    000762a9  00000000  00000000  00022011  2**0
                  CONTENTS, READONLY, DEBUGGING, OCTETS
 19 .comment      00000043  00000000  00000000  000982ba  2**0
                  CONTENTS, READONLY
 20 .debug_frame  00001024  00000000  00000000  00098300  2**2
                  CONTENTS, READONLY, DEBUGGING, OCTETS
 21 .debug_line_str 00000073  00000000  00000000  00099324  2**0
                  CONTENTS, READONLY, DEBUGGING, OCTETS

Disassembly of section .text:

080000b8 <__do_global_dtors_aux>:
 80000b8:	b510      	push	{r4, lr}
 80000ba:	4c06      	ldr	r4, [pc, #24]	@ (80000d4 <__do_global_dtors_aux+0x1c>)
 80000bc:	7823      	ldrb	r3, [r4, #0]
 80000be:	2b00      	cmp	r3, #0
 80000c0:	d107      	bne.n	80000d2 <__do_global_dtors_aux+0x1a>
 80000c2:	4b05      	ldr	r3, [pc, #20]	@ (80000d8 <__do_global_dtors_aux+0x20>)
 80000c4:	2b00      	cmp	r3, #0
 80000c6:	d002      	beq.n	80000ce <__do_global_dtors_aux+0x16>
 80000c8:	4804      	ldr	r0, [pc, #16]	@ (80000dc <__do_global_dtors_aux+0x24>)
 80000ca:	e000      	b.n	80000ce <__do_global_dtors_aux+0x16>
 80000cc:	bf00      	nop
 80000ce:	2301      	movs	r3, #1
 80000d0:	7023      	strb	r3, [r4, #0]
 80000d2:	bd10      	pop	{r4, pc}
 80000d4:	2000000c 	.word	0x2000000c
 80000d8:	00000000 	.word	0x00000000
 80000dc:	08001b20 	.word	0x08001b20

080000e0 <frame_dummy>:
 80000e0:	4b04      	ldr	r3, [pc, #16]	@ (80000f4 <frame_dummy+0x14>)
 80000e2:	b510      	push	{r4, lr}
 80000e4:	2b00      	cmp	r3, #0
 80000e6:	d003      	beq.n	80000f0 <frame_dummy+0x10>
 80000e8:	4903      	ldr	r1, [pc, #12]	@ (80000f8 <frame_dummy+0x18>)
 80000ea:	4804      	ldr	r0, [pc, #16]	@ (80000fc <frame_dummy+0x1c>)
 80000ec:	e000      	b.n	80000f0 <frame_dummy+0x10>
 80000ee:	bf00      	nop
 80000f0:	bd10      	pop	{r4, pc}
 80000f2:	46c0      	nop			@ (mov r8, r8)
 80000f4:	00000000 	.word	0x00000000
 80000f8:	20000010 	.word	0x20000010
 80000fc:	08001b20 	.word	0x08001b20

08000100 <__udivsi3>:
 8000100:	2200      	movs	r2, #0
 8000102:	0843      	lsrs	r3, r0, #1
 8000104:	428b      	cmp	r3, r1
 8000106:	d374      	bcc.n	80001f2 <__udivsi3+0xf2>
 8000108:	0903      	lsrs	r3, r0, #4
 800010a:	428b      	cmp	r3, r1
 800010c:	d35f      	bcc.n	80001ce <__udivsi3+0xce>
 800010e:	0a03      	lsrs	r3, r0, #8
 8000110:	428b      	cmp	r3, r1
 8000112:	d344      	bcc.n	800019e <__udivsi3+0x9e>
 8000114:	0b03      	lsrs	r3, r0, #12
 8000116:	428b      	cmp	r3, r1
 8000118:	d328      	bcc.n	800016c <__udivsi3+0x6c>
 800011a:	0c03      	lsrs	r3, r0, #16
 800011c:	428b      	cmp	r3, r1
 800011e:	d30d      	bcc.n	800013c <__udivsi3+0x3c>
 8000120:	22ff      	movs	r2, #255	@ 0xff
 8000122:	0209      	lsls	r1, r1, #8
 8000124:	ba12      	rev	r2, r2
 8000126:	0c03      	lsrs	r3, r0, #16
 8000128:	428b      	cmp	r3, r1
 800012a:	d302      	bcc.n	8000132 <__udivsi3+0x32>
 800012c:	1212      	asrs	r2, r2, #8
 800012e:	0209      	lsls	r1, r1, #8
 8000130:	d065      	beq.n	80001fe <__udivsi3+0xfe>
 8000132:	0b03      	lsrs	r3, r0, #12
 8000134:	428b      	cmp	r3, r1
 8000136:	d319      	bcc.n	800016c <__udivsi3+0x6c>
 8000138:	e000      	b.n	800013c <__udivsi3+0x3c>
 800013a:	0a09      	lsrs	r1, r1, #8
 800013c:	0bc3      	lsrs	r3, r0, #15
 800013e:	428b      	cmp	r3, r1
 8000140:	d301      	bcc.n	8000146 <__udivsi3+0x46>
 8000142:	03cb      	lsls	r3, r1, #15
 8000144:	1ac0      	subs	r0, r0, r3
 8000146:	4152      	adcs	r2, r2
 8000148:	0b83      	lsrs	r3, r0, #14
 800014a:	428b      	cmp	r3, r1
 800014c:	d301      	bcc.n	8000152 <__udivsi3+0x52>
 800014e:	038b      	lsls	r3, r1, #14
 8000150:	1ac0      	subs	r0, r0, r3
 8000152:	4152      	adcs	r2, r2
 8000154:	0b43      	lsrs	r3, r0, #13
 8000156:	428b      	cmp	r3, r1
 8000158:	d301      	bcc.n	800015e <__udivsi3+0x5e>
 800015a:	034b      	lsls	r3, r1, #13
 800015c:	1ac0      	subs	r0, r0, r3
 800015e:	4152      	adcs	r2, r2
 8000160:	0b03      	lsrs	r3, r0, #12
 8000162:	428b      	cmp	r3, r1
 8000164:	d301      	bcc.n	800016a <__udivsi3+0x6a>
 8000166:	030b      	lsls	r3, r1, #12
 8000168:	1ac0      	subs	r0, r0, r3
 800016a:	4152      	adcs	r2, r2
 800016c:	0ac3      	lsrs	r3, r0, #11
 800016e:	428b      	cmp	r3, r1
 8000170:	d301      	bcc.n	8000176 <__udivsi3+0x76>
 8000172:	02cb      	lsls	r3, r1, #11
 8000174:	1ac0      	subs	r0, r0, r3
 8000176:	4152      	adcs	r2, r2
 8000178:	0a83      	lsrs	r3, r0, #10
 800017a:	428b      	cmp	r3, r1
 800017c:	d301      	bcc.n	8000182 <__udivsi3+0x82>
 800017e:	028b      	lsls	r3, r1, #10
 8000180:	1ac0      	subs	r0, r0, r3
 8000182:	4152      	adcs	r2, r2
 8000184:	0a43      	lsrs	r3, r0, #9
 8000186:	428b      	cmp	r3, r1
 8000188:	d301      	bcc.n	800018e <__udivsi3+0x8e>
 800018a:	024b      	lsls	r3, r1, #9
 800018c:	1ac0      	subs	r0, r0, r3
 800018e:	4152      	adcs	r2, r2
 8000190:	0a03      	lsrs	r3, r0, #8
 8000192:	428b      	cmp	r3, r1
 8000194:	d301      	bcc.n	800019a <__udivsi3+0x9a>
 8000196:	020b      	lsls	r3, r1, #8
 8000198:	1ac0      	subs	r0, r0, r3
 800019a:	4152      	adcs	r2, r2
 800019c:	d2cd      	bcs.n	800013a <__udivsi3+0x3a>
 800019e:	09c3      	lsrs	r3, r0, #7
 80001a0:	428b      	cmp	r3, r1
 80001a2:	d301      	bcc.n	80001a8 <__udivsi3+0xa8>
 80001a4:	01cb      	lsls	r3, r1, #7
 80001a6:	1ac0      	subs	r0, r0, r3
 80001a8:	4152      	adcs	r2, r2
 80001aa:	0983      	lsrs	r3, r0, #6
 80001ac:	428b      	cmp	r3, r1
 80001ae:	d301      	bcc.n	80001b4 <__udivsi3+0xb4>
 80001b0:	018b      	lsls	r3, r1, #6
 80001b2:	1ac0      	subs	r0, r0, r3
 80001b4:	4152      	adcs	r2, r2
 80001b6:	0943      	lsrs	r3, r0, #5
 80001b8:	428b      	cmp	r3, r1
 80001ba:	d301      	bcc.n	80001c0 <__udivsi3+0xc0>
 80001bc:	014b      	lsls	r3, r1, #5
 80001be:	1ac0      	subs	r0, r0, r3
 80001c0:	4152      	adcs	r2, r2
 80001c2:	0903      	lsrs	r3, r0, #4
 80001c4:	428b      	cmp	r3, r1
 80001c6:	d301      	bcc.n	80001cc <__udivsi3+0xcc>
 80001c8:	010b      	lsls	r3, r1, #4
 80001ca:	1ac0      	subs	r0, r0, r3
 80001cc:	4152      	adcs	r2, r2
 80001ce:	08c3      	lsrs	r3, r0, #3
 80001d0:	428b      	cmp	r3, r1
 80001d2:	d301      	bcc.n	80001d8 <__udivsi3+0xd8>
 80001d4:	00cb      	lsls	r3, r1, #3
 80001d6:	1ac0      	subs	r0, r0, r3
 80001d8:	4152      	adcs	r2, r2
 80001da:	0883      	lsrs	r3, r0, #2
 80001dc:	428b      	cmp	r3, r1
 80001de:	d301      	bcc.n	80001e4 <__udivsi3+0xe4>
 80001e0:	008b      	lsls	r3, r1, #2
 80001e2:	1ac0      	subs	r0, r0, r3
 80001e4:	4152      	adcs	r2, r2
 80001e6:	0843      	lsrs	r3, r0, #1
 80001e8:	428b      	cmp	r3, r1
 80001ea:	d301      	bcc.n	80001f0 <__udivsi3+0xf0>
 80001ec:	004b      	lsls	r3, r1, #1
 80001ee:	1ac0      	subs	r0, r0, r3
 80001f0:	4152      	adcs	r2, r2
 80001f2:	1a41      	subs	r1, r0, r1
 80001f4:	d200      	bcs.n	80001f8 <__udivsi3+0xf8>
 80001f6:	4601      	mov	r1, r0
 80001f8:	4152      	adcs	r2, r2
 80001fa:	4610      	mov	r0, r2
 80001fc:	4770      	bx	lr
 80001fe:	e7ff      	b.n	8000200 <__udivsi3+0x100>
 8000200:	b501      	push	{r0, lr}
 8000202:	2000      	movs	r0, #0
 8000204:	f000 f806 	bl	8000214 <__aeabi_idiv0>
 8000208:	bd02      	pop	{r1, pc}
 800020a:	46c0      	nop			@ (mov r8, r8)

0800020c <__aeabi_uidivmod>:
 800020c:	2900      	cmp	r1, #0
 800020e:	d0f7      	beq.n	8000200 <__udivsi3+0x100>
 8000210:	e776      	b.n	8000100 <__udivsi3>
 8000212:	4770      	bx	lr

08000214 <__aeabi_idiv0>:
 8000214:	4770      	bx	lr
 8000216:	46c0      	nop			@ (mov r8, r8)

08000218 <main>:
/**
  * @brief  The application entry point.
  * @retval int
  */
int main(void)
{
 8000218:	b580      	push	{r7, lr}
 800021a:	af00      	add	r7, sp, #0
  /* USER CODE END 1 */

  /* MCU Configuration--------------------------------------------------------*/

  /* Reset of all peripherals, Initializes the Flash interface and the Systick. */
  HAL_Init();
 800021c:	f000 fc3a 	bl	8000a94 <HAL_Init>
  /* USER CODE BEGIN Init */

  /* USER CODE END Init */

  /* Configure the system clock */
  SystemClock_Config();
 8000220:	f000 f818 	bl	8000254 <SystemClock_Config>
  /* USER CODE BEGIN SysInit */

  /* USER CODE END SysInit */

  /* Initialize all configured peripherals */
  MX_GPIO_Init();
 8000224:	f000 f85e 	bl	80002e4 <MX_GPIO_Init>
  /* USER CODE BEGIN 2 */
  initialize_pwp(&led_blink, 500, 5);
 8000228:	23fa      	movs	r3, #250	@ 0xfa
 800022a:	0059      	lsls	r1, r3, #1
 800022c:	4b07      	ldr	r3, [pc, #28]	@ (800024c <main+0x34>)
 800022e:	2205      	movs	r2, #5
 8000230:	0018      	movs	r0, r3
 8000232:	f000 f911 	bl	8000458 <initialize_pwp>
  while (1)
  {
    /* USER CODE END WHILE */

    /* USER CODE BEGIN 3 */
	  process(&my_wigy);
 8000236:	4b06      	ldr	r3, [pc, #24]	@ (8000250 <main+0x38>)
 8000238:	0018      	movs	r0, r3
 800023a:	f000 fabd 	bl	80007b8 <process>
	  process_with_period(&led_blink);
 800023e:	4b03      	ldr	r3, [pc, #12]	@ (800024c <main+0x34>)
 8000240:	0018      	movs	r0, r3
 8000242:	f000 f91c 	bl	800047e <process_with_period>
	  process(&my_wigy);
 8000246:	46c0      	nop			@ (mov r8, r8)
 8000248:	e7f5      	b.n	8000236 <main+0x1e>
 800024a:	46c0      	nop			@ (mov r8, r8)
 800024c:	2000003c 	.word	0x2000003c
 8000250:	20000028 	.word	0x20000028

08000254 <SystemClock_Config>:
/**
  * @brief System Clock Configuration
  * @retval None
  */
void SystemClock_Config(void)
{
 8000254:	b590      	push	{r4, r7, lr}
 8000256:	b093      	sub	sp, #76	@ 0x4c
 8000258:	af00      	add	r7, sp, #0
  RCC_OscInitTypeDef RCC_OscInitStruct = {0};
 800025a:	2414      	movs	r4, #20
 800025c:	193b      	adds	r3, r7, r4
 800025e:	0018      	movs	r0, r3
 8000260:	2334      	movs	r3, #52	@ 0x34
 8000262:	001a      	movs	r2, r3
 8000264:	2100      	movs	r1, #0
 8000266:	f001 fc2f 	bl	8001ac8 <memset>
  RCC_ClkInitTypeDef RCC_ClkInitStruct = {0};
 800026a:	1d3b      	adds	r3, r7, #4
 800026c:	0018      	movs	r0, r3
 800026e:	2310      	movs	r3, #16
 8000270:	001a      	movs	r2, r3
 8000272:	2100      	movs	r1, #0
 8000274:	f001 fc28 	bl	8001ac8 <memset>

  /** Configure the main internal regulator output voltage
  */
  HAL_PWREx_ControlVoltageScaling(PWR_REGULATOR_VOLTAGE_SCALE1);
 8000278:	2380      	movs	r3, #128	@ 0x80
 800027a:	009b      	lsls	r3, r3, #2
 800027c:	0018      	movs	r0, r3
 800027e:	f000 ff49 	bl	8001114 <HAL_PWREx_ControlVoltageScaling>

  /** Initializes the RCC Oscillators according to the specified parameters
  * in the RCC_OscInitTypeDef structure.
  */
  RCC_OscInitStruct.OscillatorType = RCC_OSCILLATORTYPE_HSI;
 8000282:	193b      	adds	r3, r7, r4
 8000284:	2202      	movs	r2, #2
 8000286:	601a      	str	r2, [r3, #0]
  RCC_OscInitStruct.HSIState = RCC_HSI_ON;
 8000288:	193b      	adds	r3, r7, r4
 800028a:	2280      	movs	r2, #128	@ 0x80
 800028c:	0052      	lsls	r2, r2, #1
 800028e:	60da      	str	r2, [r3, #12]
  RCC_OscInitStruct.HSIDiv = RCC_HSI_DIV1;
 8000290:	193b      	adds	r3, r7, r4
 8000292:	2200      	movs	r2, #0
 8000294:	611a      	str	r2, [r3, #16]
  RCC_OscInitStruct.HSICalibrationValue = RCC_HSICALIBRATION_DEFAULT;
 8000296:	193b      	adds	r3, r7, r4
 8000298:	2240      	movs	r2, #64	@ 0x40
 800029a:	615a      	str	r2, [r3, #20]
  RCC_OscInitStruct.PLL.PLLState = RCC_PLL_NONE;
 800029c:	193b      	adds	r3, r7, r4
 800029e:	2200      	movs	r2, #0
 80002a0:	61da      	str	r2, [r3, #28]
  if (HAL_RCC_OscConfig(&RCC_OscInitStruct) != HAL_OK)
 80002a2:	193b      	adds	r3, r7, r4
 80002a4:	0018      	movs	r0, r3
 80002a6:	f000 ff75 	bl	8001194 <HAL_RCC_OscConfig>
 80002aa:	1e03      	subs	r3, r0, #0
 80002ac:	d001      	beq.n	80002b2 <SystemClock_Config+0x5e>
  {
    Error_Handler();
 80002ae:	f000 f90f 	bl	80004d0 <Error_Handler>
  }

  /** Initializes the CPU, AHB and APB buses clocks
  */
  RCC_ClkInitStruct.ClockType = RCC_CLOCKTYPE_HCLK|RCC_CLOCKTYPE_SYSCLK
 80002b2:	1d3b      	adds	r3, r7, #4
 80002b4:	2207      	movs	r2, #7
 80002b6:	601a      	str	r2, [r3, #0]
                              |RCC_CLOCKTYPE_PCLK1;
  RCC_ClkInitStruct.SYSCLKSource = RCC_SYSCLKSOURCE_HSI;
 80002b8:	1d3b      	adds	r3, r7, #4
 80002ba:	2200      	movs	r2, #0
 80002bc:	605a      	str	r2, [r3, #4]
  RCC_ClkInitStruct.AHBCLKDivider = RCC_SYSCLK_DIV1;
 80002be:	1d3b      	adds	r3, r7, #4
 80002c0:	2200      	movs	r2, #0
 80002c2:	609a      	str	r2, [r3, #8]
  RCC_ClkInitStruct.APB1CLKDivider = RCC_HCLK_DIV1;
 80002c4:	1d3b      	adds	r3, r7, #4
 80002c6:	2200      	movs	r2, #0
 80002c8:	60da      	str	r2, [r3, #12]

  if (HAL_RCC_ClockConfig(&RCC_ClkInitStruct, FLASH_LATENCY_0) != HAL_OK)
 80002ca:	1d3b      	adds	r3, r7, #4
 80002cc:	2100      	movs	r1, #0
 80002ce:	0018      	movs	r0, r3
 80002d0:	f001 fa70 	bl	80017b4 <HAL_RCC_ClockConfig>
 80002d4:	1e03      	subs	r3, r0, #0
 80002d6:	d001      	beq.n	80002dc <SystemClock_Config+0x88>
  {
    Error_Handler();
 80002d8:	f000 f8fa 	bl	80004d0 <Error_Handler>
  }
}
 80002dc:	46c0      	nop			@ (mov r8, r8)
 80002de:	46bd      	mov	sp, r7
 80002e0:	b013      	add	sp, #76	@ 0x4c
 80002e2:	bd90      	pop	{r4, r7, pc}

080002e4 <MX_GPIO_Init>:
  * @brief GPIO Initialization Function
  * @param None
  * @retval None
  */
static void MX_GPIO_Init(void)
{
 80002e4:	b590      	push	{r4, r7, lr}
 80002e6:	b089      	sub	sp, #36	@ 0x24
 80002e8:	af00      	add	r7, sp, #0
  GPIO_InitTypeDef GPIO_InitStruct = {0};
 80002ea:	240c      	movs	r4, #12
 80002ec:	193b      	adds	r3, r7, r4
 80002ee:	0018      	movs	r0, r3
 80002f0:	2314      	movs	r3, #20
 80002f2:	001a      	movs	r2, r3
 80002f4:	2100      	movs	r1, #0
 80002f6:	f001 fbe7 	bl	8001ac8 <memset>
/* USER CODE BEGIN MX_GPIO_Init_1 */
/* USER CODE END MX_GPIO_Init_1 */

  /* GPIO Ports Clock Enable */
  __HAL_RCC_GPIOB_CLK_ENABLE();
 80002fa:	4b53      	ldr	r3, [pc, #332]	@ (8000448 <MX_GPIO_Init+0x164>)
 80002fc:	6b5a      	ldr	r2, [r3, #52]	@ 0x34
 80002fe:	4b52      	ldr	r3, [pc, #328]	@ (8000448 <MX_GPIO_Init+0x164>)
 8000300:	2102      	movs	r1, #2
 8000302:	430a      	orrs	r2, r1
 8000304:	635a      	str	r2, [r3, #52]	@ 0x34
 8000306:	4b50      	ldr	r3, [pc, #320]	@ (8000448 <MX_GPIO_Init+0x164>)
 8000308:	6b5b      	ldr	r3, [r3, #52]	@ 0x34
 800030a:	2202      	movs	r2, #2
 800030c:	4013      	ands	r3, r2
 800030e:	60bb      	str	r3, [r7, #8]
 8000310:	68bb      	ldr	r3, [r7, #8]
  __HAL_RCC_GPIOC_CLK_ENABLE();
 8000312:	4b4d      	ldr	r3, [pc, #308]	@ (8000448 <MX_GPIO_Init+0x164>)
 8000314:	6b5a      	ldr	r2, [r3, #52]	@ 0x34
 8000316:	4b4c      	ldr	r3, [pc, #304]	@ (8000448 <MX_GPIO_Init+0x164>)
 8000318:	2104      	movs	r1, #4
 800031a:	430a      	orrs	r2, r1
 800031c:	635a      	str	r2, [r3, #52]	@ 0x34
 800031e:	4b4a      	ldr	r3, [pc, #296]	@ (8000448 <MX_GPIO_Init+0x164>)
 8000320:	6b5b      	ldr	r3, [r3, #52]	@ 0x34
 8000322:	2204      	movs	r2, #4
 8000324:	4013      	ands	r3, r2
 8000326:	607b      	str	r3, [r7, #4]
 8000328:	687b      	ldr	r3, [r7, #4]
  __HAL_RCC_GPIOA_CLK_ENABLE();
 800032a:	4b47      	ldr	r3, [pc, #284]	@ (8000448 <MX_GPIO_Init+0x164>)
 800032c:	6b5a      	ldr	r2, [r3, #52]	@ 0x34
 800032e:	4b46      	ldr	r3, [pc, #280]	@ (8000448 <MX_GPIO_Init+0x164>)
 8000330:	2101      	movs	r1, #1
 8000332:	430a      	orrs	r2, r1
 8000334:	635a      	str	r2, [r3, #52]	@ 0x34
 8000336:	4b44      	ldr	r3, [pc, #272]	@ (8000448 <MX_GPIO_Init+0x164>)
 8000338:	6b5b      	ldr	r3, [r3, #52]	@ 0x34
 800033a:	2201      	movs	r2, #1
 800033c:	4013      	ands	r3, r2
 800033e:	603b      	str	r3, [r7, #0]
 8000340:	683b      	ldr	r3, [r7, #0]

  /*Configure GPIO pin Output Level */
  HAL_GPIO_WritePin(GPIOB, LEDD1012_G_Pin|LED12_G_Pin, GPIO_PIN_RESET);
 8000342:	4b42      	ldr	r3, [pc, #264]	@ (800044c <MX_GPIO_Init+0x168>)
 8000344:	2200      	movs	r2, #0
 8000346:	2188      	movs	r1, #136	@ 0x88
 8000348:	0018      	movs	r0, r3
 800034a:	f000 fe88 	bl	800105e <HAL_GPIO_WritePin>

  /*Configure GPIO pin Output Level */
  HAL_GPIO_WritePin(GPIOC, Heater_G_Pin|UVLED_G_Pin, GPIO_PIN_RESET);
 800034e:	23c0      	movs	r3, #192	@ 0xc0
 8000350:	021b      	lsls	r3, r3, #8
 8000352:	483f      	ldr	r0, [pc, #252]	@ (8000450 <MX_GPIO_Init+0x16c>)
 8000354:	2200      	movs	r2, #0
 8000356:	0019      	movs	r1, r3
 8000358:	f000 fe81 	bl	800105e <HAL_GPIO_WritePin>

  /*Configure GPIO pin Output Level */
  HAL_GPIO_WritePin(GPIOA, USBLED_Pin|EXTFAN_G_Pin|RGB_Green_G_Pin, GPIO_PIN_RESET);
 800035c:	23a0      	movs	r3, #160	@ 0xa0
 800035e:	05db      	lsls	r3, r3, #23
 8000360:	2200      	movs	r2, #0
 8000362:	2119      	movs	r1, #25
 8000364:	0018      	movs	r0, r3
 8000366:	f000 fe7a 	bl	800105e <HAL_GPIO_WritePin>

  /*Configure GPIO pin Output Level */
  HAL_GPIO_WritePin(RGB_Red_G_GPIO_Port, RGB_Red_G_Pin, GPIO_PIN_SET);
 800036a:	4b38      	ldr	r3, [pc, #224]	@ (800044c <MX_GPIO_Init+0x168>)
 800036c:	2201      	movs	r2, #1
 800036e:	2101      	movs	r1, #1
 8000370:	0018      	movs	r0, r3
 8000372:	f000 fe74 	bl	800105e <HAL_GPIO_WritePin>

  /*Configure GPIO pin Output Level */
  HAL_GPIO_WritePin(RGB_Blue_G_GPIO_Port, RGB_Blue_G_Pin, GPIO_PIN_SET);
 8000376:	2380      	movs	r3, #128	@ 0x80
 8000378:	0119      	lsls	r1, r3, #4
 800037a:	23a0      	movs	r3, #160	@ 0xa0
 800037c:	05db      	lsls	r3, r3, #23
 800037e:	2201      	movs	r2, #1
 8000380:	0018      	movs	r0, r3
 8000382:	f000 fe6c 	bl	800105e <HAL_GPIO_WritePin>

  /*Configure GPIO pins : LEDD1012_G_Pin RGB_Red_G_Pin LED12_G_Pin */
  GPIO_InitStruct.Pin = LEDD1012_G_Pin|RGB_Red_G_Pin|LED12_G_Pin;
 8000386:	193b      	adds	r3, r7, r4
 8000388:	2289      	movs	r2, #137	@ 0x89
 800038a:	601a      	str	r2, [r3, #0]
  GPIO_InitStruct.Mode = GPIO_MODE_OUTPUT_PP;
 800038c:	193b      	adds	r3, r7, r4
 800038e:	2201      	movs	r2, #1
 8000390:	605a      	str	r2, [r3, #4]
  GPIO_InitStruct.Pull = GPIO_NOPULL;
 8000392:	193b      	adds	r3, r7, r4
 8000394:	2200      	movs	r2, #0
 8000396:	609a      	str	r2, [r3, #8]
  GPIO_InitStruct.Speed = GPIO_SPEED_FREQ_LOW;
 8000398:	193b      	adds	r3, r7, r4
 800039a:	2200      	movs	r2, #0
 800039c:	60da      	str	r2, [r3, #12]
  HAL_GPIO_Init(GPIOB, &GPIO_InitStruct);
 800039e:	193b      	adds	r3, r7, r4
 80003a0:	4a2a      	ldr	r2, [pc, #168]	@ (800044c <MX_GPIO_Init+0x168>)
 80003a2:	0019      	movs	r1, r3
 80003a4:	0010      	movs	r0, r2
 80003a6:	f000 fcd9 	bl	8000d5c <HAL_GPIO_Init>

  /*Configure GPIO pins : Heater_G_Pin UVLED_G_Pin */
  GPIO_InitStruct.Pin = Heater_G_Pin|UVLED_G_Pin;
 80003aa:	0021      	movs	r1, r4
 80003ac:	187b      	adds	r3, r7, r1
 80003ae:	22c0      	movs	r2, #192	@ 0xc0
 80003b0:	0212      	lsls	r2, r2, #8
 80003b2:	601a      	str	r2, [r3, #0]
  GPIO_InitStruct.Mode = GPIO_MODE_OUTPUT_PP;
 80003b4:	000c      	movs	r4, r1
 80003b6:	193b      	adds	r3, r7, r4
 80003b8:	2201      	movs	r2, #1
 80003ba:	605a      	str	r2, [r3, #4]
  GPIO_InitStruct.Pull = GPIO_NOPULL;
 80003bc:	193b      	adds	r3, r7, r4
 80003be:	2200      	movs	r2, #0
 80003c0:	609a      	str	r2, [r3, #8]
  GPIO_InitStruct.Speed = GPIO_SPEED_FREQ_LOW;
 80003c2:	193b      	adds	r3, r7, r4
 80003c4:	2200      	movs	r2, #0
 80003c6:	60da      	str	r2, [r3, #12]
  HAL_GPIO_Init(GPIOC, &GPIO_InitStruct);
 80003c8:	193b      	adds	r3, r7, r4
 80003ca:	4a21      	ldr	r2, [pc, #132]	@ (8000450 <MX_GPIO_Init+0x16c>)
 80003cc:	0019      	movs	r1, r3
 80003ce:	0010      	movs	r0, r2
 80003d0:	f000 fcc4 	bl	8000d5c <HAL_GPIO_Init>

  /*Configure GPIO pins : USBLED_Pin EXTFAN_G_Pin RGB_Green_G_Pin RGB_Blue_G_Pin */
  GPIO_InitStruct.Pin = USBLED_Pin|EXTFAN_G_Pin|RGB_Green_G_Pin|RGB_Blue_G_Pin;
 80003d4:	193b      	adds	r3, r7, r4
 80003d6:	4a1f      	ldr	r2, [pc, #124]	@ (8000454 <MX_GPIO_Init+0x170>)
 80003d8:	601a      	str	r2, [r3, #0]
  GPIO_InitStruct.Mode = GPIO_MODE_OUTPUT_PP;
 80003da:	193b      	adds	r3, r7, r4
 80003dc:	2201      	movs	r2, #1
 80003de:	605a      	str	r2, [r3, #4]
  GPIO_InitStruct.Pull = GPIO_NOPULL;
 80003e0:	193b      	adds	r3, r7, r4
 80003e2:	2200      	movs	r2, #0
 80003e4:	609a      	str	r2, [r3, #8]
  GPIO_InitStruct.Speed = GPIO_SPEED_FREQ_LOW;
 80003e6:	193b      	adds	r3, r7, r4
 80003e8:	2200      	movs	r2, #0
 80003ea:	60da      	str	r2, [r3, #12]
  HAL_GPIO_Init(GPIOA, &GPIO_InitStruct);
 80003ec:	193a      	adds	r2, r7, r4
 80003ee:	23a0      	movs	r3, #160	@ 0xa0
 80003f0:	05db      	lsls	r3, r3, #23
 80003f2:	0011      	movs	r1, r2
 80003f4:	0018      	movs	r0, r3
 80003f6:	f000 fcb1 	bl	8000d5c <HAL_GPIO_Init>

  /*Configure GPIO pins : SW2_Pin SW1_Pin */
  GPIO_InitStruct.Pin = SW2_Pin|SW1_Pin;
 80003fa:	0021      	movs	r1, r4
 80003fc:	187b      	adds	r3, r7, r1
 80003fe:	2206      	movs	r2, #6
 8000400:	601a      	str	r2, [r3, #0]
  GPIO_InitStruct.Mode = GPIO_MODE_IT_FALLING;
 8000402:	187b      	adds	r3, r7, r1
 8000404:	2284      	movs	r2, #132	@ 0x84
 8000406:	0392      	lsls	r2, r2, #14
 8000408:	605a      	str	r2, [r3, #4]
  GPIO_InitStruct.Pull = GPIO_PULLUP;
 800040a:	187b      	adds	r3, r7, r1
 800040c:	2201      	movs	r2, #1
 800040e:	609a      	str	r2, [r3, #8]
  HAL_GPIO_Init(GPIOA, &GPIO_InitStruct);
 8000410:	187a      	adds	r2, r7, r1
 8000412:	23a0      	movs	r3, #160	@ 0xa0
 8000414:	05db      	lsls	r3, r3, #23
 8000416:	0011      	movs	r1, r2
 8000418:	0018      	movs	r0, r3
 800041a:	f000 fc9f 	bl	8000d5c <HAL_GPIO_Init>

  /* EXTI interrupt init*/
  HAL_NVIC_SetPriority(EXTI0_1_IRQn, 0, 0);
 800041e:	2200      	movs	r2, #0
 8000420:	2100      	movs	r1, #0
 8000422:	2005      	movs	r0, #5
 8000424:	f000 fc68 	bl	8000cf8 <HAL_NVIC_SetPriority>
  HAL_NVIC_EnableIRQ(EXTI0_1_IRQn);
 8000428:	2005      	movs	r0, #5
 800042a:	f000 fc7a 	bl	8000d22 <HAL_NVIC_EnableIRQ>

  HAL_NVIC_SetPriority(EXTI2_3_IRQn, 0, 0);
 800042e:	2200      	movs	r2, #0
 8000430:	2100      	movs	r1, #0
 8000432:	2006      	movs	r0, #6
 8000434:	f000 fc60 	bl	8000cf8 <HAL_NVIC_SetPriority>
  HAL_NVIC_EnableIRQ(EXTI2_3_IRQn);
 8000438:	2006      	movs	r0, #6
 800043a:	f000 fc72 	bl	8000d22 <HAL_NVIC_EnableIRQ>

/* USER CODE BEGIN MX_GPIO_Init_2 */
/* USER CODE END MX_GPIO_Init_2 */
}
 800043e:	46c0      	nop			@ (mov r8, r8)
 8000440:	46bd      	mov	sp, r7
 8000442:	b009      	add	sp, #36	@ 0x24
 8000444:	bd90      	pop	{r4, r7, pc}
 8000446:	46c0      	nop			@ (mov r8, r8)
 8000448:	40021000 	.word	0x40021000
 800044c:	50000400 	.word	0x50000400
 8000450:	50000800 	.word	0x50000800
 8000454:	00000819 	.word	0x00000819

08000458 <initialize_pwp>:

/* USER CODE BEGIN 4 */
void initialize_pwp(Ptimer_t* _instance, uint32_t period, int repeat_cnt){
 8000458:	b580      	push	{r7, lr}
 800045a:	b084      	sub	sp, #16
 800045c:	af00      	add	r7, sp, #0
 800045e:	60f8      	str	r0, [r7, #12]
 8000460:	60b9      	str	r1, [r7, #8]
 8000462:	607a      	str	r2, [r7, #4]
	_instance->do_flag 		= false;
 8000464:	68fb      	ldr	r3, [r7, #12]
 8000466:	2200      	movs	r2, #0
 8000468:	701a      	strb	r2, [r3, #0]
	_instance->period  		= period;
 800046a:	68fb      	ldr	r3, [r7, #12]
 800046c:	68ba      	ldr	r2, [r7, #8]
 800046e:	609a      	str	r2, [r3, #8]
	_instance->repeat_cnt	= repeat_cnt;
 8000470:	68fb      	ldr	r3, [r7, #12]
 8000472:	687a      	ldr	r2, [r7, #4]
 8000474:	60da      	str	r2, [r3, #12]
}
 8000476:	46c0      	nop			@ (mov r8, r8)
 8000478:	46bd      	mov	sp, r7
 800047a:	b004      	add	sp, #16
 800047c:	bd80      	pop	{r7, pc}

0800047e <process_with_period>:

void process_with_period(Ptimer_t* _instance){
 800047e:	b580      	push	{r7, lr}
 8000480:	b082      	sub	sp, #8
 8000482:	af00      	add	r7, sp, #0
 8000484:	6078      	str	r0, [r7, #4]
	if(_instance->current_cnt == _instance->repeat_cnt) _instance->do_flag = false;
 8000486:	687b      	ldr	r3, [r7, #4]
 8000488:	691a      	ldr	r2, [r3, #16]
 800048a:	687b      	ldr	r3, [r7, #4]
 800048c:	68db      	ldr	r3, [r3, #12]
 800048e:	429a      	cmp	r2, r3
 8000490:	d102      	bne.n	8000498 <process_with_period+0x1a>
 8000492:	687b      	ldr	r3, [r7, #4]
 8000494:	2200      	movs	r2, #0
 8000496:	701a      	strb	r2, [r3, #0]

	if(_instance->tick >= _instance->period && (_instance->do_flag == false)){
 8000498:	687b      	ldr	r3, [r7, #4]
 800049a:	685a      	ldr	r2, [r3, #4]
 800049c:	687b      	ldr	r3, [r7, #4]
 800049e:	689b      	ldr	r3, [r3, #8]
 80004a0:	429a      	cmp	r2, r3
 80004a2:	d311      	bcc.n	80004c8 <process_with_period+0x4a>
 80004a4:	687b      	ldr	r3, [r7, #4]
 80004a6:	781b      	ldrb	r3, [r3, #0]
 80004a8:	2201      	movs	r2, #1
 80004aa:	4053      	eors	r3, r2
 80004ac:	b2db      	uxtb	r3, r3
 80004ae:	2b00      	cmp	r3, #0
 80004b0:	d00a      	beq.n	80004c8 <process_with_period+0x4a>
		_instance->do_flag = true;
 80004b2:	687b      	ldr	r3, [r7, #4]
 80004b4:	2201      	movs	r2, #1
 80004b6:	701a      	strb	r2, [r3, #0]
		_instance->tick = 0;
 80004b8:	687b      	ldr	r3, [r7, #4]
 80004ba:	2200      	movs	r2, #0
 80004bc:	605a      	str	r2, [r3, #4]
		_instance->current_cnt++;
 80004be:	687b      	ldr	r3, [r7, #4]
 80004c0:	691b      	ldr	r3, [r3, #16]
 80004c2:	1c5a      	adds	r2, r3, #1
 80004c4:	687b      	ldr	r3, [r7, #4]
 80004c6:	611a      	str	r2, [r3, #16]
	}
}
 80004c8:	46c0      	nop			@ (mov r8, r8)
 80004ca:	46bd      	mov	sp, r7
 80004cc:	b002      	add	sp, #8
 80004ce:	bd80      	pop	{r7, pc}

080004d0 <Error_Handler>:
/**
  * @brief  This function is executed in case of error occurrence.
  * @retval None
  */
void Error_Handler(void)
{
 80004d0:	b580      	push	{r7, lr}
 80004d2:	af00      	add	r7, sp, #0
  \details Disables IRQ interrupts by setting the I-bit in the CPSR.
           Can only be executed in Privileged modes.
 */
__STATIC_FORCEINLINE void __disable_irq(void)
{
  __ASM volatile ("cpsid i" : : : "memory");
 80004d4:	b672      	cpsid	i
}
 80004d6:	46c0      	nop			@ (mov r8, r8)
  /* USER CODE BEGIN Error_Handler_Debug */
  /* User can add his own implementation to report the HAL error return state */
  __disable_irq();
  while (1)
 80004d8:	46c0      	nop			@ (mov r8, r8)
 80004da:	e7fd      	b.n	80004d8 <Error_Handler+0x8>

080004dc <HAL_MspInit>:
 80004dc:	b580      	push	{r7, lr}
 80004de:	b082      	sub	sp, #8
 80004e0:	af00      	add	r7, sp, #0
 80004e2:	4b0f      	ldr	r3, [pc, #60]	@ (8000520 <HAL_MspInit+0x44>)
 80004e4:	6c1a      	ldr	r2, [r3, #64]	@ 0x40
 80004e6:	4b0e      	ldr	r3, [pc, #56]	@ (8000520 <HAL_MspInit+0x44>)
 80004e8:	2101      	movs	r1, #1
 80004ea:	430a      	orrs	r2, r1
 80004ec:	641a      	str	r2, [r3, #64]	@ 0x40
 80004ee:	4b0c      	ldr	r3, [pc, #48]	@ (8000520 <HAL_MspInit+0x44>)
 80004f0:	6c1b      	ldr	r3, [r3, #64]	@ 0x40
 80004f2:	2201      	movs	r2, #1
 80004f4:	4013      	ands	r3, r2
 80004f6:	607b      	str	r3, [r7, #4]
 80004f8:	687b      	ldr	r3, [r7, #4]
 80004fa:	4b09      	ldr	r3, [pc, #36]	@ (8000520 <HAL_MspInit+0x44>)
 80004fc:	6bda      	ldr	r2, [r3, #60]	@ 0x3c
 80004fe:	4b08      	ldr	r3, [pc, #32]	@ (8000520 <HAL_MspInit+0x44>)
 8000500:	2180      	movs	r1, #128	@ 0x80
 8000502:	0549      	lsls	r1, r1, #21
 8000504:	430a      	orrs	r2, r1
 8000506:	63da      	str	r2, [r3, #60]	@ 0x3c
 8000508:	4b05      	ldr	r3, [pc, #20]	@ (8000520 <HAL_MspInit+0x44>)
 800050a:	6bda      	ldr	r2, [r3, #60]	@ 0x3c
 800050c:	2380      	movs	r3, #128	@ 0x80
 800050e:	055b      	lsls	r3, r3, #21
 8000510:	4013      	ands	r3, r2
 8000512:	603b      	str	r3, [r7, #0]
 8000514:	683b      	ldr	r3, [r7, #0]
 8000516:	46c0      	nop			@ (mov r8, r8)
 8000518:	46bd      	mov	sp, r7
 800051a:	b002      	add	sp, #8
 800051c:	bd80      	pop	{r7, pc}
 800051e:	46c0      	nop			@ (mov r8, r8)
 8000520:	40021000 	.word	0x40021000

08000524 <NMI_Handler>:
/******************************************************************************/
/**
  * @brief This function handles Non maskable interrupt.
  */
void NMI_Handler(void)
{
 8000524:	b580      	push	{r7, lr}
 8000526:	af00      	add	r7, sp, #0
  /* USER CODE BEGIN NonMaskableInt_IRQn 0 */

  /* USER CODE END NonMaskableInt_IRQn 0 */
  /* USER CODE BEGIN NonMaskableInt_IRQn 1 */
   while (1)
 8000528:	46c0      	nop			@ (mov r8, r8)
 800052a:	e7fd      	b.n	8000528 <NMI_Handler+0x4>

0800052c <HardFault_Handler>:

/**
  * @brief This function handles Hard fault interrupt.
  */
void HardFault_Handler(void)
{
 800052c:	b580      	push	{r7, lr}
 800052e:	af00      	add	r7, sp, #0
  /* USER CODE BEGIN HardFault_IRQn 0 */

  /* USER CODE END HardFault_IRQn 0 */
  while (1)
 8000530:	46c0      	nop			@ (mov r8, r8)
 8000532:	e7fd      	b.n	8000530 <HardFault_Handler+0x4>

08000534 <SVC_Handler>:

/**
  * @brief This function handles System service call via SWI instruction.
  */
void SVC_Handler(void)
{
 8000534:	b580      	push	{r7, lr}
 8000536:	af00      	add	r7, sp, #0

  /* USER CODE END SVC_IRQn 0 */
  /* USER CODE BEGIN SVC_IRQn 1 */

  /* USER CODE END SVC_IRQn 1 */
}
 8000538:	46c0      	nop			@ (mov r8, r8)
 800053a:	46bd      	mov	sp, r7
 800053c:	bd80      	pop	{r7, pc}

0800053e <PendSV_Handler>:

/**
  * @brief This function handles Pendable request for system service.
  */
void PendSV_Handler(void)
{
 800053e:	b580      	push	{r7, lr}
 8000540:	af00      	add	r7, sp, #0

  /* USER CODE END PendSV_IRQn 0 */
  /* USER CODE BEGIN PendSV_IRQn 1 */

  /* USER CODE END PendSV_IRQn 1 */
}
 8000542:	46c0      	nop			@ (mov r8, r8)
 8000544:	46bd      	mov	sp, r7
 8000546:	bd80      	pop	{r7, pc}

08000548 <SysTick_Handler>:

/**
  * @brief This function handles System tick timer.
  */
void SysTick_Handler(void)
{
 8000548:	b580      	push	{r7, lr}
 800054a:	af00      	add	r7, sp, #0
  /* USER CODE BEGIN SysTick_IRQn 0 */
	if(led_blink.tick_flag == true) led_blink.tick++;
 800054c:	4b0e      	ldr	r3, [pc, #56]	@ (8000588 <SysTick_Handler+0x40>)
 800054e:	785b      	ldrb	r3, [r3, #1]
 8000550:	2b00      	cmp	r3, #0
 8000552:	d004      	beq.n	800055e <SysTick_Handler+0x16>
 8000554:	4b0c      	ldr	r3, [pc, #48]	@ (8000588 <SysTick_Handler+0x40>)
 8000556:	685b      	ldr	r3, [r3, #4]
 8000558:	1c5a      	adds	r2, r3, #1
 800055a:	4b0b      	ldr	r3, [pc, #44]	@ (8000588 <SysTick_Handler+0x40>)
 800055c:	605a      	str	r2, [r3, #4]
	if(led_blink.tick_flag!= false && led_blink.tick != 0) led_blink.tick = 0;
 800055e:	4b0a      	ldr	r3, [pc, #40]	@ (8000588 <SysTick_Handler+0x40>)
 8000560:	785b      	ldrb	r3, [r3, #1]
 8000562:	2b00      	cmp	r3, #0
 8000564:	d006      	beq.n	8000574 <SysTick_Handler+0x2c>
 8000566:	4b08      	ldr	r3, [pc, #32]	@ (8000588 <SysTick_Handler+0x40>)
 8000568:	685b      	ldr	r3, [r3, #4]
 800056a:	2b00      	cmp	r3, #0
 800056c:	d002      	beq.n	8000574 <SysTick_Handler+0x2c>
 800056e:	4b06      	ldr	r3, [pc, #24]	@ (8000588 <SysTick_Handler+0x40>)
 8000570:	2200      	movs	r2, #0
 8000572:	605a      	str	r2, [r3, #4]
	valid_sw_tick++;
 8000574:	4b05      	ldr	r3, [pc, #20]	@ (800058c <SysTick_Handler+0x44>)
 8000576:	681b      	ldr	r3, [r3, #0]
 8000578:	1c5a      	adds	r2, r3, #1
 800057a:	4b04      	ldr	r3, [pc, #16]	@ (800058c <SysTick_Handler+0x44>)
 800057c:	601a      	str	r2, [r3, #0]
  /* USER CODE END SysTick_IRQn 0 */
  HAL_IncTick();
 800057e:	f000 faf3 	bl	8000b68 <HAL_IncTick>
  /* USER CODE BEGIN SysTick_IRQn 1 */

  /* USER CODE END SysTick_IRQn 1 */
}
 8000582:	46c0      	nop			@ (mov r8, r8)
 8000584:	46bd      	mov	sp, r7
 8000586:	bd80      	pop	{r7, pc}
 8000588:	2000003c 	.word	0x2000003c
 800058c:	20000050 	.word	0x20000050

08000590 <EXTI0_1_IRQHandler>:

/**
  * @brief This function handles EXTI line 0 and line 1 interrupts.
  */
void EXTI0_1_IRQHandler(void)
{
 8000590:	b580      	push	{r7, lr}
 8000592:	af00      	add	r7, sp, #0
  /* USER CODE BEGIN EXTI0_1_IRQn 0 */

  /* USER CODE END EXTI0_1_IRQn 0 */
  HAL_GPIO_EXTI_IRQHandler(SW2_Pin);
 8000594:	2002      	movs	r0, #2
 8000596:	f000 fd7f 	bl	8001098 <HAL_GPIO_EXTI_IRQHandler>
  /* USER CODE BEGIN EXTI0_1_IRQn 1 */
  if(valid_sw_tick >= 50){
 800059a:	4b0e      	ldr	r3, [pc, #56]	@ (80005d4 <EXTI0_1_IRQHandler+0x44>)
 800059c:	681b      	ldr	r3, [r3, #0]
 800059e:	2b31      	cmp	r3, #49	@ 0x31
 80005a0:	d915      	bls.n	80005ce <EXTI0_1_IRQHandler+0x3e>
	  valid_sw_tick = 0;
 80005a2:	4b0c      	ldr	r3, [pc, #48]	@ (80005d4 <EXTI0_1_IRQHandler+0x44>)
 80005a4:	2200      	movs	r2, #0
 80005a6:	601a      	str	r2, [r3, #0]
	  if(my_wigy.System.push_cnt>=3) my_wigy.System.push_cnt = 0;
 80005a8:	4b0b      	ldr	r3, [pc, #44]	@ (80005d8 <EXTI0_1_IRQHandler+0x48>)
 80005aa:	68db      	ldr	r3, [r3, #12]
 80005ac:	2b02      	cmp	r3, #2
 80005ae:	dd02      	ble.n	80005b6 <EXTI0_1_IRQHandler+0x26>
 80005b0:	4b09      	ldr	r3, [pc, #36]	@ (80005d8 <EXTI0_1_IRQHandler+0x48>)
 80005b2:	2200      	movs	r2, #0
 80005b4:	60da      	str	r2, [r3, #12]
	  my_wigy.System.push_cnt++;
 80005b6:	4b08      	ldr	r3, [pc, #32]	@ (80005d8 <EXTI0_1_IRQHandler+0x48>)
 80005b8:	68db      	ldr	r3, [r3, #12]
 80005ba:	1c5a      	adds	r2, r3, #1
 80005bc:	4b06      	ldr	r3, [pc, #24]	@ (80005d8 <EXTI0_1_IRQHandler+0x48>)
 80005be:	60da      	str	r2, [r3, #12]
	  if(my_wigy.L.push_cnt != 0) my_wigy.L.push_cnt = 0;
 80005c0:	4b05      	ldr	r3, [pc, #20]	@ (80005d8 <EXTI0_1_IRQHandler+0x48>)
 80005c2:	689b      	ldr	r3, [r3, #8]
 80005c4:	2b00      	cmp	r3, #0
 80005c6:	d002      	beq.n	80005ce <EXTI0_1_IRQHandler+0x3e>
 80005c8:	4b03      	ldr	r3, [pc, #12]	@ (80005d8 <EXTI0_1_IRQHandler+0x48>)
 80005ca:	2200      	movs	r2, #0
 80005cc:	609a      	str	r2, [r3, #8]
  }
  /* USER CODE END EXTI0_1_IRQn 1 */
}
 80005ce:	46c0      	nop			@ (mov r8, r8)
 80005d0:	46bd      	mov	sp, r7
 80005d2:	bd80      	pop	{r7, pc}
 80005d4:	20000050 	.word	0x20000050
 80005d8:	20000028 	.word	0x20000028

080005dc <EXTI2_3_IRQHandler>:

/**
  * @brief This function handles EXTI line 2 and line 3 interrupts.
  */
void EXTI2_3_IRQHandler(void)
{
 80005dc:	b580      	push	{r7, lr}
 80005de:	af00      	add	r7, sp, #0
  /* USER CODE BEGIN EXTI2_3_IRQn 0 */

  /* USER CODE END EXTI2_3_IRQn 0 */
  HAL_GPIO_EXTI_IRQHandler(SW1_Pin);
 80005e0:	2004      	movs	r0, #4
 80005e2:	f000 fd59 	bl	8001098 <HAL_GPIO_EXTI_IRQHandler>
  /* USER CODE BEGIN EXTI2_3_IRQn 1 */
  if(valid_sw_tick >= 50){
 80005e6:	4b0f      	ldr	r3, [pc, #60]	@ (8000624 <EXTI2_3_IRQHandler+0x48>)
 80005e8:	681b      	ldr	r3, [r3, #0]
 80005ea:	2b31      	cmp	r3, #49	@ 0x31
 80005ec:	d916      	bls.n	800061c <EXTI2_3_IRQHandler+0x40>
	  valid_sw_tick = 0;
 80005ee:	4b0d      	ldr	r3, [pc, #52]	@ (8000624 <EXTI2_3_IRQHandler+0x48>)
 80005f0:	2200      	movs	r2, #0
 80005f2:	601a      	str	r2, [r3, #0]
	  if(my_wigy.L.push_cnt>=6) my_wigy.L.push_cnt = 0;
 80005f4:	4b0c      	ldr	r3, [pc, #48]	@ (8000628 <EXTI2_3_IRQHandler+0x4c>)
 80005f6:	689b      	ldr	r3, [r3, #8]
 80005f8:	2b05      	cmp	r3, #5
 80005fa:	dd02      	ble.n	8000602 <EXTI2_3_IRQHandler+0x26>
 80005fc:	4b0a      	ldr	r3, [pc, #40]	@ (8000628 <EXTI2_3_IRQHandler+0x4c>)
 80005fe:	2200      	movs	r2, #0
 8000600:	609a      	str	r2, [r3, #8]
	  if(my_wigy.System.push_cnt == 3 || my_wigy.System.push_cnt == 0) my_wigy.L.push_cnt++;
 8000602:	4b09      	ldr	r3, [pc, #36]	@ (8000628 <EXTI2_3_IRQHandler+0x4c>)
 8000604:	68db      	ldr	r3, [r3, #12]
 8000606:	2b03      	cmp	r3, #3
 8000608:	d003      	beq.n	8000612 <EXTI2_3_IRQHandler+0x36>
 800060a:	4b07      	ldr	r3, [pc, #28]	@ (8000628 <EXTI2_3_IRQHandler+0x4c>)
 800060c:	68db      	ldr	r3, [r3, #12]
 800060e:	2b00      	cmp	r3, #0
 8000610:	d104      	bne.n	800061c <EXTI2_3_IRQHandler+0x40>
 8000612:	4b05      	ldr	r3, [pc, #20]	@ (8000628 <EXTI2_3_IRQHandler+0x4c>)
 8000614:	689b      	ldr	r3, [r3, #8]
 8000616:	1c5a      	adds	r2, r3, #1
 8000618:	4b03      	ldr	r3, [pc, #12]	@ (8000628 <EXTI2_3_IRQHandler+0x4c>)
 800061a:	609a      	str	r2, [r3, #8]
  }
  /* USER CODE END EXTI2_3_IRQn 1 */
}
 800061c:	46c0      	nop			@ (mov r8, r8)
 800061e:	46bd      	mov	sp, r7
 8000620:	bd80      	pop	{r7, pc}
 8000622:	46c0      	nop			@ (mov r8, r8)
 8000624:	20000050 	.word	0x20000050
 8000628:	20000028 	.word	0x20000028

0800062c <SystemInit>:
 800062c:	b580      	push	{r7, lr}
 800062e:	af00      	add	r7, sp, #0
 8000630:	46c0      	nop			@ (mov r8, r8)
 8000632:	46bd      	mov	sp, r7
 8000634:	bd80      	pop	{r7, pc}

08000636 <is_pushed_L_sw>:
	_instance->mode.lmode		= 0;
	_instance->mode.sysmode		= 0;

}

void is_pushed_L_sw(WIGY_t *wigy){
 8000636:	b580      	push	{r7, lr}
 8000638:	b082      	sub	sp, #8
 800063a:	af00      	add	r7, sp, #0
 800063c:	6078      	str	r0, [r7, #4]
	if(wigy->L.push_cnt != wigy->mode.lmode){
 800063e:	687b      	ldr	r3, [r7, #4]
 8000640:	689b      	ldr	r3, [r3, #8]
 8000642:	687a      	ldr	r2, [r7, #4]
 8000644:	7c52      	ldrb	r2, [r2, #17]
 8000646:	4293      	cmp	r3, r2
 8000648:	d009      	beq.n	800065e <is_pushed_L_sw+0x28>
		wigy->mode.lmode = wigy->L.push_cnt;
 800064a:	687b      	ldr	r3, [r7, #4]
 800064c:	689b      	ldr	r3, [r3, #8]
 800064e:	b2da      	uxtb	r2, r3
 8000650:	687b      	ldr	r3, [r7, #4]
 8000652:	745a      	strb	r2, [r3, #17]
		change_led_mode(wigy->mode.lmode);
 8000654:	687b      	ldr	r3, [r7, #4]
 8000656:	7c5b      	ldrb	r3, [r3, #17]
 8000658:	0018      	movs	r0, r3
 800065a:	f000 f90d 	bl	8000878 <change_led_mode>
	}
}
 800065e:	46c0      	nop			@ (mov r8, r8)
 8000660:	46bd      	mov	sp, r7
 8000662:	b002      	add	sp, #8
 8000664:	bd80      	pop	{r7, pc}

08000666 <is_pushed_System_sw>:

void is_pushed_System_sw(WIGY_t *wigy){
 8000666:	b580      	push	{r7, lr}
 8000668:	b082      	sub	sp, #8
 800066a:	af00      	add	r7, sp, #0
 800066c:	6078      	str	r0, [r7, #4]
	if(wigy->System.push_cnt != wigy->mode.sysmode){
 800066e:	687b      	ldr	r3, [r7, #4]
 8000670:	68db      	ldr	r3, [r3, #12]
 8000672:	687a      	ldr	r2, [r7, #4]
 8000674:	7c12      	ldrb	r2, [r2, #16]
 8000676:	4293      	cmp	r3, r2
 8000678:	d009      	beq.n	800068e <is_pushed_System_sw+0x28>
		wigy->mode.sysmode = wigy->System.push_cnt;
 800067a:	687b      	ldr	r3, [r7, #4]
 800067c:	68db      	ldr	r3, [r3, #12]
 800067e:	b2da      	uxtb	r2, r3
 8000680:	687b      	ldr	r3, [r7, #4]
 8000682:	741a      	strb	r2, [r3, #16]
		change_system_mode(wigy->mode.sysmode);
 8000684:	687b      	ldr	r3, [r7, #4]
 8000686:	7c1b      	ldrb	r3, [r3, #16]
 8000688:	0018      	movs	r0, r3
 800068a:	f000 f8a9 	bl	80007e0 <change_system_mode>
	}
}
 800068e:	46c0      	nop			@ (mov r8, r8)
 8000690:	46bd      	mov	sp, r7
 8000692:	b002      	add	sp, #8
 8000694:	bd80      	pop	{r7, pc}
	...

08000698 <read_state>:

static void read_state(WIGY_t *wigy){
 8000698:	b580      	push	{r7, lr}
 800069a:	b082      	sub	sp, #8
 800069c:	af00      	add	r7, sp, #0
 800069e:	6078      	str	r0, [r7, #4]
	wigy->irled  = HAL_GPIO_ReadPin(GPIOB,LEDD1012_G_Pin);
 80006a0:	4b15      	ldr	r3, [pc, #84]	@ (80006f8 <read_state+0x60>)
 80006a2:	2180      	movs	r1, #128	@ 0x80
 80006a4:	0018      	movs	r0, r3
 80006a6:	f000 fcbd 	bl	8001024 <HAL_GPIO_ReadPin>
 80006aa:	0003      	movs	r3, r0
 80006ac:	001a      	movs	r2, r3
 80006ae:	687b      	ldr	r3, [r7, #4]
 80006b0:	705a      	strb	r2, [r3, #1]
	wigy->uvled  = HAL_GPIO_ReadPin(GPIOC, UVLED_G_Pin);
 80006b2:	2380      	movs	r3, #128	@ 0x80
 80006b4:	021b      	lsls	r3, r3, #8
 80006b6:	4a11      	ldr	r2, [pc, #68]	@ (80006fc <read_state+0x64>)
 80006b8:	0019      	movs	r1, r3
 80006ba:	0010      	movs	r0, r2
 80006bc:	f000 fcb2 	bl	8001024 <HAL_GPIO_ReadPin>
 80006c0:	0003      	movs	r3, r0
 80006c2:	001a      	movs	r2, r3
 80006c4:	687b      	ldr	r3, [r7, #4]
 80006c6:	709a      	strb	r2, [r3, #2]
	wigy->uvcled = HAL_GPIO_ReadPin(GPIOB, LED12_G_Pin);
 80006c8:	4b0b      	ldr	r3, [pc, #44]	@ (80006f8 <read_state+0x60>)
 80006ca:	2108      	movs	r1, #8
 80006cc:	0018      	movs	r0, r3
 80006ce:	f000 fca9 	bl	8001024 <HAL_GPIO_ReadPin>
 80006d2:	0003      	movs	r3, r0
 80006d4:	001a      	movs	r2, r3
 80006d6:	687b      	ldr	r3, [r7, #4]
 80006d8:	70da      	strb	r2, [r3, #3]
	wigy->fan	 = HAL_GPIO_ReadPin(GPIOA,EXTFAN_G_Pin);
 80006da:	23a0      	movs	r3, #160	@ 0xa0
 80006dc:	05db      	lsls	r3, r3, #23
 80006de:	2108      	movs	r1, #8
 80006e0:	0018      	movs	r0, r3
 80006e2:	f000 fc9f 	bl	8001024 <HAL_GPIO_ReadPin>
 80006e6:	0003      	movs	r3, r0
 80006e8:	001a      	movs	r2, r3
 80006ea:	687b      	ldr	r3, [r7, #4]
 80006ec:	711a      	strb	r2, [r3, #4]

}
 80006ee:	46c0      	nop			@ (mov r8, r8)
 80006f0:	46bd      	mov	sp, r7
 80006f2:	b002      	add	sp, #8
 80006f4:	bd80      	pop	{r7, pc}
 80006f6:	46c0      	nop			@ (mov r8, r8)
 80006f8:	50000400 	.word	0x50000400
 80006fc:	50000800 	.word	0x50000800

08000700 <Ctrl_led>:

void Ctrl_led(color_t color, turn on_off){
 8000700:	b580      	push	{r7, lr}
 8000702:	b082      	sub	sp, #8
 8000704:	af00      	add	r7, sp, #0
 8000706:	0002      	movs	r2, r0
 8000708:	1dfb      	adds	r3, r7, #7
 800070a:	701a      	strb	r2, [r3, #0]
 800070c:	1dbb      	adds	r3, r7, #6
 800070e:	1c0a      	adds	r2, r1, #0
 8000710:	701a      	strb	r2, [r3, #0]
	led_off_all();
 8000712:	f000 f90b 	bl	800092c <led_off_all>
	switch(color){
 8000716:	1dfb      	adds	r3, r7, #7
 8000718:	781b      	ldrb	r3, [r3, #0]
 800071a:	2b05      	cmp	r3, #5
 800071c:	d842      	bhi.n	80007a4 <Ctrl_led+0xa4>
 800071e:	009a      	lsls	r2, r3, #2
 8000720:	4b23      	ldr	r3, [pc, #140]	@ (80007b0 <Ctrl_led+0xb0>)
 8000722:	18d3      	adds	r3, r2, r3
 8000724:	681b      	ldr	r3, [r3, #0]
 8000726:	469f      	mov	pc, r3
	case pink:
		HAL_GPIO_WritePin(GPIOA,RGB_Blue_G_Pin,on_off);
 8000728:	1dbb      	adds	r3, r7, #6
 800072a:	781a      	ldrb	r2, [r3, #0]
 800072c:	2380      	movs	r3, #128	@ 0x80
 800072e:	0119      	lsls	r1, r3, #4
 8000730:	23a0      	movs	r3, #160	@ 0xa0
 8000732:	05db      	lsls	r3, r3, #23
 8000734:	0018      	movs	r0, r3
 8000736:	f000 fc92 	bl	800105e <HAL_GPIO_WritePin>
		HAL_GPIO_WritePin(GPIOB,RGB_Red_G_Pin,on_off);
 800073a:	1dbb      	adds	r3, r7, #6
 800073c:	781b      	ldrb	r3, [r3, #0]
 800073e:	481d      	ldr	r0, [pc, #116]	@ (80007b4 <Ctrl_led+0xb4>)
 8000740:	001a      	movs	r2, r3
 8000742:	2101      	movs	r1, #1
 8000744:	f000 fc8b 	bl	800105e <HAL_GPIO_WritePin>
		break;
 8000748:	e02d      	b.n	80007a6 <Ctrl_led+0xa6>
	case sky:
		HAL_GPIO_WritePin(GPIOA,RGB_Blue_G_Pin,on_off);
 800074a:	1dbb      	adds	r3, r7, #6
 800074c:	781a      	ldrb	r2, [r3, #0]
 800074e:	2380      	movs	r3, #128	@ 0x80
 8000750:	0119      	lsls	r1, r3, #4
 8000752:	23a0      	movs	r3, #160	@ 0xa0
 8000754:	05db      	lsls	r3, r3, #23
 8000756:	0018      	movs	r0, r3
 8000758:	f000 fc81 	bl	800105e <HAL_GPIO_WritePin>
		HAL_GPIO_WritePin(GPIOA,RGB_Green_G_Pin,on_off);
 800075c:	1dbb      	adds	r3, r7, #6
 800075e:	781a      	ldrb	r2, [r3, #0]
 8000760:	23a0      	movs	r3, #160	@ 0xa0
 8000762:	05db      	lsls	r3, r3, #23
 8000764:	2110      	movs	r1, #16
 8000766:	0018      	movs	r0, r3
 8000768:	f000 fc79 	bl	800105e <HAL_GPIO_WritePin>
		break;
 800076c:	e01b      	b.n	80007a6 <Ctrl_led+0xa6>
	case blue:
		HAL_GPIO_WritePin(GPIOA,RGB_Blue_G_Pin,on_off);
 800076e:	1dbb      	adds	r3, r7, #6
 8000770:	781a      	ldrb	r2, [r3, #0]
 8000772:	2380      	movs	r3, #128	@ 0x80
 8000774:	0119      	lsls	r1, r3, #4
 8000776:	23a0      	movs	r3, #160	@ 0xa0
 8000778:	05db      	lsls	r3, r3, #23
 800077a:	0018      	movs	r0, r3
 800077c:	f000 fc6f 	bl	800105e <HAL_GPIO_WritePin>
		break;
 8000780:	e011      	b.n	80007a6 <Ctrl_led+0xa6>
	case green:
		HAL_GPIO_WritePin(GPIOA,RGB_Green_G_Pin,on_off);
 8000782:	1dbb      	adds	r3, r7, #6
 8000784:	781a      	ldrb	r2, [r3, #0]
 8000786:	23a0      	movs	r3, #160	@ 0xa0
 8000788:	05db      	lsls	r3, r3, #23
 800078a:	2110      	movs	r1, #16
 800078c:	0018      	movs	r0, r3
 800078e:	f000 fc66 	bl	800105e <HAL_GPIO_WritePin>
		break;
 8000792:	e008      	b.n	80007a6 <Ctrl_led+0xa6>
	case red:
		HAL_GPIO_WritePin(GPIOB,RGB_Red_G_Pin,on_off);
 8000794:	1dbb      	adds	r3, r7, #6
 8000796:	781b      	ldrb	r3, [r3, #0]
 8000798:	4806      	ldr	r0, [pc, #24]	@ (80007b4 <Ctrl_led+0xb4>)
 800079a:	001a      	movs	r2, r3
 800079c:	2101      	movs	r1, #1
 800079e:	f000 fc5e 	bl	800105e <HAL_GPIO_WritePin>
		break;
 80007a2:	e000      	b.n	80007a6 <Ctrl_led+0xa6>
	default:
		break;
 80007a4:	46c0      	nop			@ (mov r8, r8)
	}
}
 80007a6:	46c0      	nop			@ (mov r8, r8)
 80007a8:	46bd      	mov	sp, r7
 80007aa:	b002      	add	sp, #8
 80007ac:	bd80      	pop	{r7, pc}
 80007ae:	46c0      	nop			@ (mov r8, r8)
 80007b0:	08001b78 	.word	0x08001b78
 80007b4:	50000400 	.word	0x50000400

080007b8 <process>:

void process(WIGY_t *wigy){
 80007b8:	b580      	push	{r7, lr}
 80007ba:	b082      	sub	sp, #8
 80007bc:	af00      	add	r7, sp, #0
 80007be:	6078      	str	r0, [r7, #4]
	is_pushed_L_sw(wigy);
 80007c0:	687b      	ldr	r3, [r7, #4]
 80007c2:	0018      	movs	r0, r3
 80007c4:	f7ff ff37 	bl	8000636 <is_pushed_L_sw>
	is_pushed_System_sw(wigy);
 80007c8:	687b      	ldr	r3, [r7, #4]
 80007ca:	0018      	movs	r0, r3
 80007cc:	f7ff ff4b 	bl	8000666 <is_pushed_System_sw>
	read_state(wigy);
 80007d0:	687b      	ldr	r3, [r7, #4]
 80007d2:	0018      	movs	r0, r3
 80007d4:	f7ff ff60 	bl	8000698 <read_state>
}
 80007d8:	46c0      	nop			@ (mov r8, r8)
 80007da:	46bd      	mov	sp, r7
 80007dc:	b002      	add	sp, #8
 80007de:	bd80      	pop	{r7, pc}

080007e0 <change_system_mode>:


static void change_system_mode(Sys_mode_t sysmode){
 80007e0:	b580      	push	{r7, lr}
 80007e2:	b082      	sub	sp, #8
 80007e4:	af00      	add	r7, sp, #0
 80007e6:	0002      	movs	r2, r0
 80007e8:	1dfb      	adds	r3, r7, #7
 80007ea:	701a      	strb	r2, [r3, #0]
	switch(sysmode){	//Sys_default,Sys_mode1,Sys_mode2,Sys_All_off
 80007ec:	1dfb      	adds	r3, r7, #7
 80007ee:	781b      	ldrb	r3, [r3, #0]
 80007f0:	2b03      	cmp	r3, #3
 80007f2:	d02a      	beq.n	800084a <change_system_mode+0x6a>
 80007f4:	dc39      	bgt.n	800086a <change_system_mode+0x8a>
 80007f6:	2b02      	cmp	r3, #2
 80007f8:	d016      	beq.n	8000828 <change_system_mode+0x48>
 80007fa:	dc36      	bgt.n	800086a <change_system_mode+0x8a>
 80007fc:	2b00      	cmp	r3, #0
 80007fe:	d036      	beq.n	800086e <change_system_mode+0x8e>
 8000800:	2b01      	cmp	r3, #1
 8000802:	d000      	beq.n	8000806 <change_system_mode+0x26>
		Ctrl_IR_Led(off);
		Ctrl_UVA_Led(off);
		Ctrl_UVC_Led(off);
		Ctrl_EXTFAN(off);
	default:
		break;
 8000804:	e031      	b.n	800086a <change_system_mode+0x8a>
		Ctrl_led(red,on);
 8000806:	2101      	movs	r1, #1
 8000808:	2005      	movs	r0, #5
 800080a:	f7ff ff79 	bl	8000700 <Ctrl_led>
		Ctrl_IR_Led(on);
 800080e:	2001      	movs	r0, #1
 8000810:	f000 f8a2 	bl	8000958 <Ctrl_IR_Led>
		Ctrl_UVA_Led(on);
 8000814:	2001      	movs	r0, #1
 8000816:	f000 f8b3 	bl	8000980 <Ctrl_UVA_Led>
		Ctrl_UVC_Led(on);
 800081a:	2001      	movs	r0, #1
 800081c:	f000 f8c4 	bl	80009a8 <Ctrl_UVC_Led>
		Ctrl_EXTFAN(off);
 8000820:	2000      	movs	r0, #0
 8000822:	f000 f8d5 	bl	80009d0 <Ctrl_EXTFAN>
		break;
 8000826:	e023      	b.n	8000870 <change_system_mode+0x90>
		Ctrl_led(red,on);
 8000828:	2101      	movs	r1, #1
 800082a:	2005      	movs	r0, #5
 800082c:	f7ff ff68 	bl	8000700 <Ctrl_led>
		Ctrl_IR_Led(on);
 8000830:	2001      	movs	r0, #1
 8000832:	f000 f891 	bl	8000958 <Ctrl_IR_Led>
		Ctrl_UVA_Led(on);
 8000836:	2001      	movs	r0, #1
 8000838:	f000 f8a2 	bl	8000980 <Ctrl_UVA_Led>
		Ctrl_UVC_Led(on);
 800083c:	2001      	movs	r0, #1
 800083e:	f000 f8b3 	bl	80009a8 <Ctrl_UVC_Led>
		Ctrl_EXTFAN(on);
 8000842:	2001      	movs	r0, #1
 8000844:	f000 f8c4 	bl	80009d0 <Ctrl_EXTFAN>
		break;
 8000848:	e012      	b.n	8000870 <change_system_mode+0x90>
		Ctrl_led(none,on);
 800084a:	2101      	movs	r1, #1
 800084c:	2000      	movs	r0, #0
 800084e:	f7ff ff57 	bl	8000700 <Ctrl_led>
		Ctrl_IR_Led(off);
 8000852:	2000      	movs	r0, #0
 8000854:	f000 f880 	bl	8000958 <Ctrl_IR_Led>
		Ctrl_UVA_Led(off);
 8000858:	2000      	movs	r0, #0
 800085a:	f000 f891 	bl	8000980 <Ctrl_UVA_Led>
		Ctrl_UVC_Led(off);
 800085e:	2000      	movs	r0, #0
 8000860:	f000 f8a2 	bl	80009a8 <Ctrl_UVC_Led>
		Ctrl_EXTFAN(off);
 8000864:	2000      	movs	r0, #0
 8000866:	f000 f8b3 	bl	80009d0 <Ctrl_EXTFAN>
		break;
 800086a:	46c0      	nop			@ (mov r8, r8)
 800086c:	e000      	b.n	8000870 <change_system_mode+0x90>
		break;
 800086e:	46c0      	nop			@ (mov r8, r8)
	}
}
 8000870:	46c0      	nop			@ (mov r8, r8)
 8000872:	46bd      	mov	sp, r7
 8000874:	b002      	add	sp, #8
 8000876:	bd80      	pop	{r7, pc}

08000878 <change_led_mode>:
//default_mode,mood,low_salgyun, high_salgyun, mid_salgyun, one_high_salgyun,remove_func
static void change_led_mode(L_mode_t lmode){
 8000878:	b580      	push	{r7, lr}
 800087a:	b082      	sub	sp, #8
 800087c:	af00      	add	r7, sp, #0
 800087e:	0002      	movs	r2, r0
 8000880:	1dfb      	adds	r3, r7, #7
 8000882:	701a      	strb	r2, [r3, #0]
	switch(lmode){
 8000884:	1dfb      	adds	r3, r7, #7
 8000886:	781b      	ldrb	r3, [r3, #0]
 8000888:	2b06      	cmp	r3, #6
 800088a:	d846      	bhi.n	800091a <change_led_mode+0xa2>
 800088c:	009a      	lsls	r2, r3, #2
 800088e:	4b25      	ldr	r3, [pc, #148]	@ (8000924 <change_led_mode+0xac>)
 8000890:	18d3      	adds	r3, r2, r3
 8000892:	681b      	ldr	r3, [r3, #0]
 8000894:	469f      	mov	pc, r3
	case L_mode1:	//mood
		Ctrl_led(red,on);
 8000896:	2101      	movs	r1, #1
 8000898:	2005      	movs	r0, #5
 800089a:	f7ff ff31 	bl	8000700 <Ctrl_led>
		break;
 800089e:	e03d      	b.n	800091c <change_led_mode+0xa4>

	case L_mode2:	//low_salgyun
		Ctrl_led(sky,on);
 80008a0:	2101      	movs	r1, #1
 80008a2:	2002      	movs	r0, #2
 80008a4:	f7ff ff2c 	bl	8000700 <Ctrl_led>
		Ctrl_UVA_Led(on);
 80008a8:	2001      	movs	r0, #1
 80008aa:	f000 f869 	bl	8000980 <Ctrl_UVA_Led>
		break;
 80008ae:	e035      	b.n	800091c <change_led_mode+0xa4>

	case L_mode3:	//high_salgyun
		Ctrl_led(blue,on);
 80008b0:	2101      	movs	r1, #1
 80008b2:	2003      	movs	r0, #3
 80008b4:	f7ff ff24 	bl	8000700 <Ctrl_led>
		Ctrl_UVA_Led(on);
 80008b8:	2001      	movs	r0, #1
 80008ba:	f000 f861 	bl	8000980 <Ctrl_UVA_Led>
		Ctrl_UVC_Led(on);
 80008be:	2001      	movs	r0, #1
 80008c0:	f000 f872 	bl	80009a8 <Ctrl_UVC_Led>
		break;
 80008c4:	e02a      	b.n	800091c <change_led_mode+0xa4>

	case L_mode4:	//mid_salgyun
		Ctrl_led(green,on);
 80008c6:	2101      	movs	r1, #1
 80008c8:	2004      	movs	r0, #4
 80008ca:	f7ff ff19 	bl	8000700 <Ctrl_led>
		Ctrl_UVA_Led(on);
 80008ce:	2001      	movs	r0, #1
 80008d0:	f000 f856 	bl	8000980 <Ctrl_UVA_Led>
		Ctrl_UVC_Led(on);
 80008d4:	2001      	movs	r0, #1
 80008d6:	f000 f867 	bl	80009a8 <Ctrl_UVC_Led>
		break;
 80008da:	e01f      	b.n	800091c <change_led_mode+0xa4>

	case L_mode5:	//one_high_salgyun
		Ctrl_led(pink,on);
 80008dc:	2101      	movs	r1, #1
 80008de:	2001      	movs	r0, #1
 80008e0:	f7ff ff0e 	bl	8000700 <Ctrl_led>
		Ctrl_UVA_Led(on);
 80008e4:	2001      	movs	r0, #1
 80008e6:	f000 f84b 	bl	8000980 <Ctrl_UVA_Led>
		Ctrl_UVC_Led(on);
 80008ea:	2001      	movs	r0, #1
 80008ec:	f000 f85c 	bl	80009a8 <Ctrl_UVC_Led>
		Ctrl_IR_Led(on);
 80008f0:	2001      	movs	r0, #1
 80008f2:	f000 f831 	bl	8000958 <Ctrl_IR_Led>
		break;
 80008f6:	e011      	b.n	800091c <change_led_mode+0xa4>
	case remove_funcs:	//remove_func
		led_off_all();
 80008f8:	f000 f818 	bl	800092c <led_off_all>
		Ctrl_UVA_Led(off);
 80008fc:	2000      	movs	r0, #0
 80008fe:	f000 f83f 	bl	8000980 <Ctrl_UVA_Led>
		Ctrl_UVC_Led(off);
 8000902:	2000      	movs	r0, #0
 8000904:	f000 f850 	bl	80009a8 <Ctrl_UVC_Led>
		Ctrl_IR_Led(off);
 8000908:	2000      	movs	r0, #0
 800090a:	f000 f825 	bl	8000958 <Ctrl_IR_Led>
		process_led_blink(&led_blink, pink);
 800090e:	4b06      	ldr	r3, [pc, #24]	@ (8000928 <change_led_mode+0xb0>)
 8000910:	2101      	movs	r1, #1
 8000912:	0018      	movs	r0, r3
 8000914:	f000 f86e 	bl	80009f4 <process_led_blink>
		break;
 8000918:	e000      	b.n	800091c <change_led_mode+0xa4>
	default:
		break;
 800091a:	46c0      	nop			@ (mov r8, r8)
	}
}
 800091c:	46c0      	nop			@ (mov r8, r8)
 800091e:	46bd      	mov	sp, r7
 8000920:	b002      	add	sp, #8
 8000922:	bd80      	pop	{r7, pc}
 8000924:	08001b90 	.word	0x08001b90
 8000928:	2000003c 	.word	0x2000003c

0800092c <led_off_all>:
// Ctrl function (GPIO)
static void led_off_all(){	//temporary all gpio
 800092c:	b580      	push	{r7, lr}
 800092e:	af00      	add	r7, sp, #0
	HAL_GPIO_WritePin(GPIOA, RGB_Green_G_Pin|RGB_Blue_G_Pin, GPIO_PIN_RESET);
 8000930:	2381      	movs	r3, #129	@ 0x81
 8000932:	0119      	lsls	r1, r3, #4
 8000934:	23a0      	movs	r3, #160	@ 0xa0
 8000936:	05db      	lsls	r3, r3, #23
 8000938:	2200      	movs	r2, #0
 800093a:	0018      	movs	r0, r3
 800093c:	f000 fb8f 	bl	800105e <HAL_GPIO_WritePin>
	HAL_GPIO_WritePin(GPIOB, RGB_Red_G_Pin, GPIO_PIN_RESET);
 8000940:	4b04      	ldr	r3, [pc, #16]	@ (8000954 <led_off_all+0x28>)
 8000942:	2200      	movs	r2, #0
 8000944:	2101      	movs	r1, #1
 8000946:	0018      	movs	r0, r3
 8000948:	f000 fb89 	bl	800105e <HAL_GPIO_WritePin>
}
 800094c:	46c0      	nop			@ (mov r8, r8)
 800094e:	46bd      	mov	sp, r7
 8000950:	bd80      	pop	{r7, pc}
 8000952:	46c0      	nop			@ (mov r8, r8)
 8000954:	50000400 	.word	0x50000400

08000958 <Ctrl_IR_Led>:
static void Ctrl_IR_Led(turn blank){
 8000958:	b580      	push	{r7, lr}
 800095a:	b082      	sub	sp, #8
 800095c:	af00      	add	r7, sp, #0
 800095e:	0002      	movs	r2, r0
 8000960:	1dfb      	adds	r3, r7, #7
 8000962:	701a      	strb	r2, [r3, #0]
	HAL_GPIO_WritePin(GPIOB,LEDD1012_G_Pin, blank);
 8000964:	1dfb      	adds	r3, r7, #7
 8000966:	781b      	ldrb	r3, [r3, #0]
 8000968:	4804      	ldr	r0, [pc, #16]	@ (800097c <Ctrl_IR_Led+0x24>)
 800096a:	001a      	movs	r2, r3
 800096c:	2180      	movs	r1, #128	@ 0x80
 800096e:	f000 fb76 	bl	800105e <HAL_GPIO_WritePin>
}
 8000972:	46c0      	nop			@ (mov r8, r8)
 8000974:	46bd      	mov	sp, r7
 8000976:	b002      	add	sp, #8
 8000978:	bd80      	pop	{r7, pc}
 800097a:	46c0      	nop			@ (mov r8, r8)
 800097c:	50000400 	.word	0x50000400

08000980 <Ctrl_UVA_Led>:

static void Ctrl_UVA_Led(turn blank){
 8000980:	b580      	push	{r7, lr}
 8000982:	b082      	sub	sp, #8
 8000984:	af00      	add	r7, sp, #0
 8000986:	0002      	movs	r2, r0
 8000988:	1dfb      	adds	r3, r7, #7
 800098a:	701a      	strb	r2, [r3, #0]
	HAL_GPIO_WritePin(GPIOC, UVLED_G_Pin, blank);
 800098c:	1dfb      	adds	r3, r7, #7
 800098e:	781a      	ldrb	r2, [r3, #0]
 8000990:	2380      	movs	r3, #128	@ 0x80
 8000992:	021b      	lsls	r3, r3, #8
 8000994:	4803      	ldr	r0, [pc, #12]	@ (80009a4 <Ctrl_UVA_Led+0x24>)
 8000996:	0019      	movs	r1, r3
 8000998:	f000 fb61 	bl	800105e <HAL_GPIO_WritePin>
}
 800099c:	46c0      	nop			@ (mov r8, r8)
 800099e:	46bd      	mov	sp, r7
 80009a0:	b002      	add	sp, #8
 80009a2:	bd80      	pop	{r7, pc}
 80009a4:	50000800 	.word	0x50000800

080009a8 <Ctrl_UVC_Led>:

static void Ctrl_UVC_Led(turn blank){
 80009a8:	b580      	push	{r7, lr}
 80009aa:	b082      	sub	sp, #8
 80009ac:	af00      	add	r7, sp, #0
 80009ae:	0002      	movs	r2, r0
 80009b0:	1dfb      	adds	r3, r7, #7
 80009b2:	701a      	strb	r2, [r3, #0]
	HAL_GPIO_WritePin(GPIOB, LED12_G_Pin, blank);
 80009b4:	1dfb      	adds	r3, r7, #7
 80009b6:	781b      	ldrb	r3, [r3, #0]
 80009b8:	4804      	ldr	r0, [pc, #16]	@ (80009cc <Ctrl_UVC_Led+0x24>)
 80009ba:	001a      	movs	r2, r3
 80009bc:	2108      	movs	r1, #8
 80009be:	f000 fb4e 	bl	800105e <HAL_GPIO_WritePin>
}
 80009c2:	46c0      	nop			@ (mov r8, r8)
 80009c4:	46bd      	mov	sp, r7
 80009c6:	b002      	add	sp, #8
 80009c8:	bd80      	pop	{r7, pc}
 80009ca:	46c0      	nop			@ (mov r8, r8)
 80009cc:	50000400 	.word	0x50000400

080009d0 <Ctrl_EXTFAN>:

static void Ctrl_EXTFAN(turn blank){
 80009d0:	b580      	push	{r7, lr}
 80009d2:	b082      	sub	sp, #8
 80009d4:	af00      	add	r7, sp, #0
 80009d6:	0002      	movs	r2, r0
 80009d8:	1dfb      	adds	r3, r7, #7
 80009da:	701a      	strb	r2, [r3, #0]
	HAL_GPIO_WritePin(GPIOA,EXTFAN_G_Pin,blank);
 80009dc:	1dfb      	adds	r3, r7, #7
 80009de:	781a      	ldrb	r2, [r3, #0]
 80009e0:	23a0      	movs	r3, #160	@ 0xa0
 80009e2:	05db      	lsls	r3, r3, #23
 80009e4:	2108      	movs	r1, #8
 80009e6:	0018      	movs	r0, r3
 80009e8:	f000 fb39 	bl	800105e <HAL_GPIO_WritePin>
}
 80009ec:	46c0      	nop			@ (mov r8, r8)
 80009ee:	46bd      	mov	sp, r7
 80009f0:	b002      	add	sp, #8
 80009f2:	bd80      	pop	{r7, pc}

080009f4 <process_led_blink>:

static void process_led_blink(Ptimer_t* process,color_t color){
 80009f4:	b580      	push	{r7, lr}
 80009f6:	b082      	sub	sp, #8
 80009f8:	af00      	add	r7, sp, #0
 80009fa:	6078      	str	r0, [r7, #4]
 80009fc:	000a      	movs	r2, r1
 80009fe:	1cfb      	adds	r3, r7, #3
 8000a00:	701a      	strb	r2, [r3, #0]
	if(process->do_flag == true){
 8000a02:	687b      	ldr	r3, [r7, #4]
 8000a04:	781b      	ldrb	r3, [r3, #0]
 8000a06:	2b00      	cmp	r3, #0
 8000a08:	d013      	beq.n	8000a32 <process_led_blink+0x3e>
		Ctrl_led(color,process->current_cnt%2);	//set state with current cnt, cause blink has two state (off and on)
 8000a0a:	687b      	ldr	r3, [r7, #4]
 8000a0c:	691b      	ldr	r3, [r3, #16]
 8000a0e:	4a0b      	ldr	r2, [pc, #44]	@ (8000a3c <process_led_blink+0x48>)
 8000a10:	4013      	ands	r3, r2
 8000a12:	d504      	bpl.n	8000a1e <process_led_blink+0x2a>
 8000a14:	3b01      	subs	r3, #1
 8000a16:	2202      	movs	r2, #2
 8000a18:	4252      	negs	r2, r2
 8000a1a:	4313      	orrs	r3, r2
 8000a1c:	3301      	adds	r3, #1
 8000a1e:	b2da      	uxtb	r2, r3
 8000a20:	1cfb      	adds	r3, r7, #3
 8000a22:	781b      	ldrb	r3, [r3, #0]
 8000a24:	0011      	movs	r1, r2
 8000a26:	0018      	movs	r0, r3
 8000a28:	f7ff fe6a 	bl	8000700 <Ctrl_led>
		process->do_flag = false;
 8000a2c:	687b      	ldr	r3, [r7, #4]
 8000a2e:	2200      	movs	r2, #0
 8000a30:	701a      	strb	r2, [r3, #0]
	}
}
 8000a32:	46c0      	nop			@ (mov r8, r8)
 8000a34:	46bd      	mov	sp, r7
 8000a36:	b002      	add	sp, #8
 8000a38:	bd80      	pop	{r7, pc}
 8000a3a:	46c0      	nop			@ (mov r8, r8)
 8000a3c:	80000001 	.word	0x80000001

08000a40 <Reset_Handler>:
 8000a40:	480d      	ldr	r0, [pc, #52]	@ (8000a78 <LoopForever+0x2>)
 8000a42:	4685      	mov	sp, r0
 8000a44:	f7ff fdf2 	bl	800062c <SystemInit>
 8000a48:	480c      	ldr	r0, [pc, #48]	@ (8000a7c <LoopForever+0x6>)
 8000a4a:	490d      	ldr	r1, [pc, #52]	@ (8000a80 <LoopForever+0xa>)
 8000a4c:	4a0d      	ldr	r2, [pc, #52]	@ (8000a84 <LoopForever+0xe>)
 8000a4e:	2300      	movs	r3, #0
 8000a50:	e002      	b.n	8000a58 <LoopCopyDataInit>

08000a52 <CopyDataInit>:
 8000a52:	58d4      	ldr	r4, [r2, r3]
 8000a54:	50c4      	str	r4, [r0, r3]
 8000a56:	3304      	adds	r3, #4

08000a58 <LoopCopyDataInit>:
 8000a58:	18c4      	adds	r4, r0, r3
 8000a5a:	428c      	cmp	r4, r1
 8000a5c:	d3f9      	bcc.n	8000a52 <CopyDataInit>
 8000a5e:	4a0a      	ldr	r2, [pc, #40]	@ (8000a88 <LoopForever+0x12>)
 8000a60:	4c0a      	ldr	r4, [pc, #40]	@ (8000a8c <LoopForever+0x16>)
 8000a62:	2300      	movs	r3, #0
 8000a64:	e001      	b.n	8000a6a <LoopFillZerobss>

08000a66 <FillZerobss>:
 8000a66:	6013      	str	r3, [r2, #0]
 8000a68:	3204      	adds	r2, #4

08000a6a <LoopFillZerobss>:
 8000a6a:	42a2      	cmp	r2, r4
 8000a6c:	d3fb      	bcc.n	8000a66 <FillZerobss>
 8000a6e:	f001 f833 	bl	8001ad8 <__libc_init_array>
 8000a72:	f7ff fbd1 	bl	8000218 <main>

08000a76 <LoopForever>:
 8000a76:	e7fe      	b.n	8000a76 <LoopForever>
 8000a78:	20002000 	.word	0x20002000
 8000a7c:	20000000 	.word	0x20000000
 8000a80:	2000000c 	.word	0x2000000c
 8000a84:	08001bb4 	.word	0x08001bb4
 8000a88:	2000000c 	.word	0x2000000c
 8000a8c:	20000058 	.word	0x20000058

08000a90 <ADC1_IRQHandler>:
 8000a90:	e7fe      	b.n	8000a90 <ADC1_IRQHandler>
	...

08000a94 <HAL_Init>:
 8000a94:	b580      	push	{r7, lr}
 8000a96:	b082      	sub	sp, #8
 8000a98:	af00      	add	r7, sp, #0
 8000a9a:	1dfb      	adds	r3, r7, #7
 8000a9c:	2200      	movs	r2, #0
 8000a9e:	701a      	strb	r2, [r3, #0]
 8000aa0:	4b0b      	ldr	r3, [pc, #44]	@ (8000ad0 <HAL_Init+0x3c>)
 8000aa2:	681a      	ldr	r2, [r3, #0]
 8000aa4:	4b0a      	ldr	r3, [pc, #40]	@ (8000ad0 <HAL_Init+0x3c>)
 8000aa6:	2180      	movs	r1, #128	@ 0x80
 8000aa8:	0049      	lsls	r1, r1, #1
 8000aaa:	430a      	orrs	r2, r1
 8000aac:	601a      	str	r2, [r3, #0]
 8000aae:	2003      	movs	r0, #3
 8000ab0:	f000 f810 	bl	8000ad4 <HAL_InitTick>
 8000ab4:	1e03      	subs	r3, r0, #0
 8000ab6:	d003      	beq.n	8000ac0 <HAL_Init+0x2c>
 8000ab8:	1dfb      	adds	r3, r7, #7
 8000aba:	2201      	movs	r2, #1
 8000abc:	701a      	strb	r2, [r3, #0]
 8000abe:	e001      	b.n	8000ac4 <HAL_Init+0x30>
 8000ac0:	f7ff fd0c 	bl	80004dc <HAL_MspInit>
 8000ac4:	1dfb      	adds	r3, r7, #7
 8000ac6:	781b      	ldrb	r3, [r3, #0]
 8000ac8:	0018      	movs	r0, r3
 8000aca:	46bd      	mov	sp, r7
 8000acc:	b002      	add	sp, #8
 8000ace:	bd80      	pop	{r7, pc}
 8000ad0:	40022000 	.word	0x40022000

08000ad4 <HAL_InitTick>:
 8000ad4:	b590      	push	{r4, r7, lr}
 8000ad6:	b085      	sub	sp, #20
 8000ad8:	af00      	add	r7, sp, #0
 8000ada:	6078      	str	r0, [r7, #4]
 8000adc:	230f      	movs	r3, #15
 8000ade:	18fb      	adds	r3, r7, r3
 8000ae0:	2200      	movs	r2, #0
 8000ae2:	701a      	strb	r2, [r3, #0]
 8000ae4:	4b1d      	ldr	r3, [pc, #116]	@ (8000b5c <HAL_InitTick+0x88>)
 8000ae6:	781b      	ldrb	r3, [r3, #0]
 8000ae8:	2b00      	cmp	r3, #0
 8000aea:	d02b      	beq.n	8000b44 <HAL_InitTick+0x70>
 8000aec:	4b1c      	ldr	r3, [pc, #112]	@ (8000b60 <HAL_InitTick+0x8c>)
 8000aee:	681c      	ldr	r4, [r3, #0]
 8000af0:	4b1a      	ldr	r3, [pc, #104]	@ (8000b5c <HAL_InitTick+0x88>)
 8000af2:	781b      	ldrb	r3, [r3, #0]
 8000af4:	0019      	movs	r1, r3
 8000af6:	23fa      	movs	r3, #250	@ 0xfa
 8000af8:	0098      	lsls	r0, r3, #2
 8000afa:	f7ff fb01 	bl	8000100 <__udivsi3>
 8000afe:	0003      	movs	r3, r0
 8000b00:	0019      	movs	r1, r3
 8000b02:	0020      	movs	r0, r4
 8000b04:	f7ff fafc 	bl	8000100 <__udivsi3>
 8000b08:	0003      	movs	r3, r0
 8000b0a:	0018      	movs	r0, r3
 8000b0c:	f000 f919 	bl	8000d42 <HAL_SYSTICK_Config>
 8000b10:	1e03      	subs	r3, r0, #0
 8000b12:	d112      	bne.n	8000b3a <HAL_InitTick+0x66>
 8000b14:	687b      	ldr	r3, [r7, #4]
 8000b16:	2b03      	cmp	r3, #3
 8000b18:	d80a      	bhi.n	8000b30 <HAL_InitTick+0x5c>
 8000b1a:	6879      	ldr	r1, [r7, #4]
 8000b1c:	2301      	movs	r3, #1
 8000b1e:	425b      	negs	r3, r3
 8000b20:	2200      	movs	r2, #0
 8000b22:	0018      	movs	r0, r3
 8000b24:	f000 f8e8 	bl	8000cf8 <HAL_NVIC_SetPriority>
 8000b28:	4b0e      	ldr	r3, [pc, #56]	@ (8000b64 <HAL_InitTick+0x90>)
 8000b2a:	687a      	ldr	r2, [r7, #4]
 8000b2c:	601a      	str	r2, [r3, #0]
 8000b2e:	e00d      	b.n	8000b4c <HAL_InitTick+0x78>
 8000b30:	230f      	movs	r3, #15
 8000b32:	18fb      	adds	r3, r7, r3
 8000b34:	2201      	movs	r2, #1
 8000b36:	701a      	strb	r2, [r3, #0]
 8000b38:	e008      	b.n	8000b4c <HAL_InitTick+0x78>
 8000b3a:	230f      	movs	r3, #15
 8000b3c:	18fb      	adds	r3, r7, r3
 8000b3e:	2201      	movs	r2, #1
 8000b40:	701a      	strb	r2, [r3, #0]
 8000b42:	e003      	b.n	8000b4c <HAL_InitTick+0x78>
 8000b44:	230f      	movs	r3, #15
 8000b46:	18fb      	adds	r3, r7, r3
 8000b48:	2201      	movs	r2, #1
 8000b4a:	701a      	strb	r2, [r3, #0]
 8000b4c:	230f      	movs	r3, #15
 8000b4e:	18fb      	adds	r3, r7, r3
 8000b50:	781b      	ldrb	r3, [r3, #0]
 8000b52:	0018      	movs	r0, r3
 8000b54:	46bd      	mov	sp, r7
 8000b56:	b005      	add	sp, #20
 8000b58:	bd90      	pop	{r4, r7, pc}
 8000b5a:	46c0      	nop			@ (mov r8, r8)
 8000b5c:	20000008 	.word	0x20000008
 8000b60:	20000000 	.word	0x20000000
 8000b64:	20000004 	.word	0x20000004

08000b68 <HAL_IncTick>:
 8000b68:	b580      	push	{r7, lr}
 8000b6a:	af00      	add	r7, sp, #0
 8000b6c:	4b05      	ldr	r3, [pc, #20]	@ (8000b84 <HAL_IncTick+0x1c>)
 8000b6e:	781b      	ldrb	r3, [r3, #0]
 8000b70:	001a      	movs	r2, r3
 8000b72:	4b05      	ldr	r3, [pc, #20]	@ (8000b88 <HAL_IncTick+0x20>)
 8000b74:	681b      	ldr	r3, [r3, #0]
 8000b76:	18d2      	adds	r2, r2, r3
 8000b78:	4b03      	ldr	r3, [pc, #12]	@ (8000b88 <HAL_IncTick+0x20>)
 8000b7a:	601a      	str	r2, [r3, #0]
 8000b7c:	46c0      	nop			@ (mov r8, r8)
 8000b7e:	46bd      	mov	sp, r7
 8000b80:	bd80      	pop	{r7, pc}
 8000b82:	46c0      	nop			@ (mov r8, r8)
 8000b84:	20000008 	.word	0x20000008
 8000b88:	20000054 	.word	0x20000054

08000b8c <HAL_GetTick>:
 8000b8c:	b580      	push	{r7, lr}
 8000b8e:	af00      	add	r7, sp, #0
 8000b90:	4b02      	ldr	r3, [pc, #8]	@ (8000b9c <HAL_GetTick+0x10>)
 8000b92:	681b      	ldr	r3, [r3, #0]
 8000b94:	0018      	movs	r0, r3
 8000b96:	46bd      	mov	sp, r7
 8000b98:	bd80      	pop	{r7, pc}
 8000b9a:	46c0      	nop			@ (mov r8, r8)
 8000b9c:	20000054 	.word	0x20000054

08000ba0 <__NVIC_EnableIRQ>:
 8000ba0:	b580      	push	{r7, lr}
 8000ba2:	b082      	sub	sp, #8
 8000ba4:	af00      	add	r7, sp, #0
 8000ba6:	0002      	movs	r2, r0
 8000ba8:	1dfb      	adds	r3, r7, #7
 8000baa:	701a      	strb	r2, [r3, #0]
 8000bac:	1dfb      	adds	r3, r7, #7
 8000bae:	781b      	ldrb	r3, [r3, #0]
 8000bb0:	2b7f      	cmp	r3, #127	@ 0x7f
 8000bb2:	d809      	bhi.n	8000bc8 <__NVIC_EnableIRQ+0x28>
 8000bb4:	1dfb      	adds	r3, r7, #7
 8000bb6:	781b      	ldrb	r3, [r3, #0]
 8000bb8:	001a      	movs	r2, r3
 8000bba:	231f      	movs	r3, #31
 8000bbc:	401a      	ands	r2, r3
 8000bbe:	4b04      	ldr	r3, [pc, #16]	@ (8000bd0 <__NVIC_EnableIRQ+0x30>)
 8000bc0:	2101      	movs	r1, #1
 8000bc2:	4091      	lsls	r1, r2
 8000bc4:	000a      	movs	r2, r1
 8000bc6:	601a      	str	r2, [r3, #0]
 8000bc8:	46c0      	nop			@ (mov r8, r8)
 8000bca:	46bd      	mov	sp, r7
 8000bcc:	b002      	add	sp, #8
 8000bce:	bd80      	pop	{r7, pc}
 8000bd0:	e000e100 	.word	0xe000e100

08000bd4 <__NVIC_SetPriority>:
 8000bd4:	b590      	push	{r4, r7, lr}
 8000bd6:	b083      	sub	sp, #12
 8000bd8:	af00      	add	r7, sp, #0
 8000bda:	0002      	movs	r2, r0
 8000bdc:	6039      	str	r1, [r7, #0]
 8000bde:	1dfb      	adds	r3, r7, #7
 8000be0:	701a      	strb	r2, [r3, #0]
 8000be2:	1dfb      	adds	r3, r7, #7
 8000be4:	781b      	ldrb	r3, [r3, #0]
 8000be6:	2b7f      	cmp	r3, #127	@ 0x7f
 8000be8:	d828      	bhi.n	8000c3c <__NVIC_SetPriority+0x68>
 8000bea:	4a2f      	ldr	r2, [pc, #188]	@ (8000ca8 <__NVIC_SetPriority+0xd4>)
 8000bec:	1dfb      	adds	r3, r7, #7
 8000bee:	781b      	ldrb	r3, [r3, #0]
 8000bf0:	b25b      	sxtb	r3, r3
 8000bf2:	089b      	lsrs	r3, r3, #2
 8000bf4:	33c0      	adds	r3, #192	@ 0xc0
 8000bf6:	009b      	lsls	r3, r3, #2
 8000bf8:	589b      	ldr	r3, [r3, r2]
 8000bfa:	1dfa      	adds	r2, r7, #7
 8000bfc:	7812      	ldrb	r2, [r2, #0]
 8000bfe:	0011      	movs	r1, r2
 8000c00:	2203      	movs	r2, #3
 8000c02:	400a      	ands	r2, r1
 8000c04:	00d2      	lsls	r2, r2, #3
 8000c06:	21ff      	movs	r1, #255	@ 0xff
 8000c08:	4091      	lsls	r1, r2
 8000c0a:	000a      	movs	r2, r1
 8000c0c:	43d2      	mvns	r2, r2
 8000c0e:	401a      	ands	r2, r3
 8000c10:	0011      	movs	r1, r2
 8000c12:	683b      	ldr	r3, [r7, #0]
 8000c14:	019b      	lsls	r3, r3, #6
 8000c16:	22ff      	movs	r2, #255	@ 0xff
 8000c18:	401a      	ands	r2, r3
 8000c1a:	1dfb      	adds	r3, r7, #7
 8000c1c:	781b      	ldrb	r3, [r3, #0]
 8000c1e:	0018      	movs	r0, r3
 8000c20:	2303      	movs	r3, #3
 8000c22:	4003      	ands	r3, r0
 8000c24:	00db      	lsls	r3, r3, #3
 8000c26:	409a      	lsls	r2, r3
 8000c28:	481f      	ldr	r0, [pc, #124]	@ (8000ca8 <__NVIC_SetPriority+0xd4>)
 8000c2a:	1dfb      	adds	r3, r7, #7
 8000c2c:	781b      	ldrb	r3, [r3, #0]
 8000c2e:	b25b      	sxtb	r3, r3
 8000c30:	089b      	lsrs	r3, r3, #2
 8000c32:	430a      	orrs	r2, r1
 8000c34:	33c0      	adds	r3, #192	@ 0xc0
 8000c36:	009b      	lsls	r3, r3, #2
 8000c38:	501a      	str	r2, [r3, r0]
 8000c3a:	e031      	b.n	8000ca0 <__NVIC_SetPriority+0xcc>
 8000c3c:	4a1b      	ldr	r2, [pc, #108]	@ (8000cac <__NVIC_SetPriority+0xd8>)
 8000c3e:	1dfb      	adds	r3, r7, #7
 8000c40:	781b      	ldrb	r3, [r3, #0]
 8000c42:	0019      	movs	r1, r3
 8000c44:	230f      	movs	r3, #15
 8000c46:	400b      	ands	r3, r1
 8000c48:	3b08      	subs	r3, #8
 8000c4a:	089b      	lsrs	r3, r3, #2
 8000c4c:	3306      	adds	r3, #6
 8000c4e:	009b      	lsls	r3, r3, #2
 8000c50:	18d3      	adds	r3, r2, r3
 8000c52:	3304      	adds	r3, #4
 8000c54:	681b      	ldr	r3, [r3, #0]
 8000c56:	1dfa      	adds	r2, r7, #7
 8000c58:	7812      	ldrb	r2, [r2, #0]
 8000c5a:	0011      	movs	r1, r2
 8000c5c:	2203      	movs	r2, #3
 8000c5e:	400a      	ands	r2, r1
 8000c60:	00d2      	lsls	r2, r2, #3
 8000c62:	21ff      	movs	r1, #255	@ 0xff
 8000c64:	4091      	lsls	r1, r2
 8000c66:	000a      	movs	r2, r1
 8000c68:	43d2      	mvns	r2, r2
 8000c6a:	401a      	ands	r2, r3
 8000c6c:	0011      	movs	r1, r2
 8000c6e:	683b      	ldr	r3, [r7, #0]
 8000c70:	019b      	lsls	r3, r3, #6
 8000c72:	22ff      	movs	r2, #255	@ 0xff
 8000c74:	401a      	ands	r2, r3
 8000c76:	1dfb      	adds	r3, r7, #7
 8000c78:	781b      	ldrb	r3, [r3, #0]
 8000c7a:	0018      	movs	r0, r3
 8000c7c:	2303      	movs	r3, #3
 8000c7e:	4003      	ands	r3, r0
 8000c80:	00db      	lsls	r3, r3, #3
 8000c82:	409a      	lsls	r2, r3
 8000c84:	4809      	ldr	r0, [pc, #36]	@ (8000cac <__NVIC_SetPriority+0xd8>)
 8000c86:	1dfb      	adds	r3, r7, #7
 8000c88:	781b      	ldrb	r3, [r3, #0]
 8000c8a:	001c      	movs	r4, r3
 8000c8c:	230f      	movs	r3, #15
 8000c8e:	4023      	ands	r3, r4
 8000c90:	3b08      	subs	r3, #8
 8000c92:	089b      	lsrs	r3, r3, #2
 8000c94:	430a      	orrs	r2, r1
 8000c96:	3306      	adds	r3, #6
 8000c98:	009b      	lsls	r3, r3, #2
 8000c9a:	18c3      	adds	r3, r0, r3
 8000c9c:	3304      	adds	r3, #4
 8000c9e:	601a      	str	r2, [r3, #0]
 8000ca0:	46c0      	nop			@ (mov r8, r8)
 8000ca2:	46bd      	mov	sp, r7
 8000ca4:	b003      	add	sp, #12
 8000ca6:	bd90      	pop	{r4, r7, pc}
 8000ca8:	e000e100 	.word	0xe000e100
 8000cac:	e000ed00 	.word	0xe000ed00

08000cb0 <SysTick_Config>:
 8000cb0:	b580      	push	{r7, lr}
 8000cb2:	b082      	sub	sp, #8
 8000cb4:	af00      	add	r7, sp, #0
 8000cb6:	6078      	str	r0, [r7, #4]
 8000cb8:	687b      	ldr	r3, [r7, #4]
 8000cba:	1e5a      	subs	r2, r3, #1
 8000cbc:	2380      	movs	r3, #128	@ 0x80
 8000cbe:	045b      	lsls	r3, r3, #17
 8000cc0:	429a      	cmp	r2, r3
 8000cc2:	d301      	bcc.n	8000cc8 <SysTick_Config+0x18>
 8000cc4:	2301      	movs	r3, #1
 8000cc6:	e010      	b.n	8000cea <SysTick_Config+0x3a>
 8000cc8:	4b0a      	ldr	r3, [pc, #40]	@ (8000cf4 <SysTick_Config+0x44>)
 8000cca:	687a      	ldr	r2, [r7, #4]
 8000ccc:	3a01      	subs	r2, #1
 8000cce:	605a      	str	r2, [r3, #4]
 8000cd0:	2301      	movs	r3, #1
 8000cd2:	425b      	negs	r3, r3
 8000cd4:	2103      	movs	r1, #3
 8000cd6:	0018      	movs	r0, r3
 8000cd8:	f7ff ff7c 	bl	8000bd4 <__NVIC_SetPriority>
 8000cdc:	4b05      	ldr	r3, [pc, #20]	@ (8000cf4 <SysTick_Config+0x44>)
 8000cde:	2200      	movs	r2, #0
 8000ce0:	609a      	str	r2, [r3, #8]
 8000ce2:	4b04      	ldr	r3, [pc, #16]	@ (8000cf4 <SysTick_Config+0x44>)
 8000ce4:	2207      	movs	r2, #7
 8000ce6:	601a      	str	r2, [r3, #0]
 8000ce8:	2300      	movs	r3, #0
 8000cea:	0018      	movs	r0, r3
 8000cec:	46bd      	mov	sp, r7
 8000cee:	b002      	add	sp, #8
 8000cf0:	bd80      	pop	{r7, pc}
 8000cf2:	46c0      	nop			@ (mov r8, r8)
 8000cf4:	e000e010 	.word	0xe000e010

08000cf8 <HAL_NVIC_SetPriority>:
 8000cf8:	b580      	push	{r7, lr}
 8000cfa:	b084      	sub	sp, #16
 8000cfc:	af00      	add	r7, sp, #0
 8000cfe:	60b9      	str	r1, [r7, #8]
 8000d00:	607a      	str	r2, [r7, #4]
 8000d02:	210f      	movs	r1, #15
 8000d04:	187b      	adds	r3, r7, r1
 8000d06:	1c02      	adds	r2, r0, #0
 8000d08:	701a      	strb	r2, [r3, #0]
 8000d0a:	68ba      	ldr	r2, [r7, #8]
 8000d0c:	187b      	adds	r3, r7, r1
 8000d0e:	781b      	ldrb	r3, [r3, #0]
 8000d10:	b25b      	sxtb	r3, r3
 8000d12:	0011      	movs	r1, r2
 8000d14:	0018      	movs	r0, r3
 8000d16:	f7ff ff5d 	bl	8000bd4 <__NVIC_SetPriority>
 8000d1a:	46c0      	nop			@ (mov r8, r8)
 8000d1c:	46bd      	mov	sp, r7
 8000d1e:	b004      	add	sp, #16
 8000d20:	bd80      	pop	{r7, pc}

08000d22 <HAL_NVIC_EnableIRQ>:
 8000d22:	b580      	push	{r7, lr}
 8000d24:	b082      	sub	sp, #8
 8000d26:	af00      	add	r7, sp, #0
 8000d28:	0002      	movs	r2, r0
 8000d2a:	1dfb      	adds	r3, r7, #7
 8000d2c:	701a      	strb	r2, [r3, #0]
 8000d2e:	1dfb      	adds	r3, r7, #7
 8000d30:	781b      	ldrb	r3, [r3, #0]
 8000d32:	b25b      	sxtb	r3, r3
 8000d34:	0018      	movs	r0, r3
 8000d36:	f7ff ff33 	bl	8000ba0 <__NVIC_EnableIRQ>
 8000d3a:	46c0      	nop			@ (mov r8, r8)
 8000d3c:	46bd      	mov	sp, r7
 8000d3e:	b002      	add	sp, #8
 8000d40:	bd80      	pop	{r7, pc}

08000d42 <HAL_SYSTICK_Config>:
 8000d42:	b580      	push	{r7, lr}
 8000d44:	b082      	sub	sp, #8
 8000d46:	af00      	add	r7, sp, #0
 8000d48:	6078      	str	r0, [r7, #4]
 8000d4a:	687b      	ldr	r3, [r7, #4]
 8000d4c:	0018      	movs	r0, r3
 8000d4e:	f7ff ffaf 	bl	8000cb0 <SysTick_Config>
 8000d52:	0003      	movs	r3, r0
 8000d54:	0018      	movs	r0, r3
 8000d56:	46bd      	mov	sp, r7
 8000d58:	b002      	add	sp, #8
 8000d5a:	bd80      	pop	{r7, pc}

08000d5c <HAL_GPIO_Init>:
 8000d5c:	b580      	push	{r7, lr}
 8000d5e:	b086      	sub	sp, #24
 8000d60:	af00      	add	r7, sp, #0
 8000d62:	6078      	str	r0, [r7, #4]
 8000d64:	6039      	str	r1, [r7, #0]
 8000d66:	2300      	movs	r3, #0
 8000d68:	617b      	str	r3, [r7, #20]
 8000d6a:	e147      	b.n	8000ffc <HAL_GPIO_Init+0x2a0>
 8000d6c:	683b      	ldr	r3, [r7, #0]
 8000d6e:	681b      	ldr	r3, [r3, #0]
 8000d70:	2101      	movs	r1, #1
 8000d72:	697a      	ldr	r2, [r7, #20]
 8000d74:	4091      	lsls	r1, r2
 8000d76:	000a      	movs	r2, r1
 8000d78:	4013      	ands	r3, r2
 8000d7a:	60fb      	str	r3, [r7, #12]
 8000d7c:	68fb      	ldr	r3, [r7, #12]
 8000d7e:	2b00      	cmp	r3, #0
 8000d80:	d100      	bne.n	8000d84 <HAL_GPIO_Init+0x28>
 8000d82:	e138      	b.n	8000ff6 <HAL_GPIO_Init+0x29a>
 8000d84:	683b      	ldr	r3, [r7, #0]
 8000d86:	685b      	ldr	r3, [r3, #4]
 8000d88:	2203      	movs	r2, #3
 8000d8a:	4013      	ands	r3, r2
 8000d8c:	2b01      	cmp	r3, #1
 8000d8e:	d005      	beq.n	8000d9c <HAL_GPIO_Init+0x40>
 8000d90:	683b      	ldr	r3, [r7, #0]
 8000d92:	685b      	ldr	r3, [r3, #4]
 8000d94:	2203      	movs	r2, #3
 8000d96:	4013      	ands	r3, r2
 8000d98:	2b02      	cmp	r3, #2
 8000d9a:	d130      	bne.n	8000dfe <HAL_GPIO_Init+0xa2>
 8000d9c:	687b      	ldr	r3, [r7, #4]
 8000d9e:	689b      	ldr	r3, [r3, #8]
 8000da0:	613b      	str	r3, [r7, #16]
 8000da2:	697b      	ldr	r3, [r7, #20]
 8000da4:	005b      	lsls	r3, r3, #1
 8000da6:	2203      	movs	r2, #3
 8000da8:	409a      	lsls	r2, r3
 8000daa:	0013      	movs	r3, r2
 8000dac:	43da      	mvns	r2, r3
 8000dae:	693b      	ldr	r3, [r7, #16]
 8000db0:	4013      	ands	r3, r2
 8000db2:	613b      	str	r3, [r7, #16]
 8000db4:	683b      	ldr	r3, [r7, #0]
 8000db6:	68da      	ldr	r2, [r3, #12]
 8000db8:	697b      	ldr	r3, [r7, #20]
 8000dba:	005b      	lsls	r3, r3, #1
 8000dbc:	409a      	lsls	r2, r3
 8000dbe:	0013      	movs	r3, r2
 8000dc0:	693a      	ldr	r2, [r7, #16]
 8000dc2:	4313      	orrs	r3, r2
 8000dc4:	613b      	str	r3, [r7, #16]
 8000dc6:	687b      	ldr	r3, [r7, #4]
 8000dc8:	693a      	ldr	r2, [r7, #16]
 8000dca:	609a      	str	r2, [r3, #8]
 8000dcc:	687b      	ldr	r3, [r7, #4]
 8000dce:	685b      	ldr	r3, [r3, #4]
 8000dd0:	613b      	str	r3, [r7, #16]
 8000dd2:	2201      	movs	r2, #1
 8000dd4:	697b      	ldr	r3, [r7, #20]
 8000dd6:	409a      	lsls	r2, r3
 8000dd8:	0013      	movs	r3, r2
 8000dda:	43da      	mvns	r2, r3
 8000ddc:	693b      	ldr	r3, [r7, #16]
 8000dde:	4013      	ands	r3, r2
 8000de0:	613b      	str	r3, [r7, #16]
 8000de2:	683b      	ldr	r3, [r7, #0]
 8000de4:	685b      	ldr	r3, [r3, #4]
 8000de6:	091b      	lsrs	r3, r3, #4
 8000de8:	2201      	movs	r2, #1
 8000dea:	401a      	ands	r2, r3
 8000dec:	697b      	ldr	r3, [r7, #20]
 8000dee:	409a      	lsls	r2, r3
 8000df0:	0013      	movs	r3, r2
 8000df2:	693a      	ldr	r2, [r7, #16]
 8000df4:	4313      	orrs	r3, r2
 8000df6:	613b      	str	r3, [r7, #16]
 8000df8:	687b      	ldr	r3, [r7, #4]
 8000dfa:	693a      	ldr	r2, [r7, #16]
 8000dfc:	605a      	str	r2, [r3, #4]
 8000dfe:	683b      	ldr	r3, [r7, #0]
 8000e00:	685b      	ldr	r3, [r3, #4]
 8000e02:	2203      	movs	r2, #3
 8000e04:	4013      	ands	r3, r2
 8000e06:	2b03      	cmp	r3, #3
 8000e08:	d017      	beq.n	8000e3a <HAL_GPIO_Init+0xde>
 8000e0a:	687b      	ldr	r3, [r7, #4]
 8000e0c:	68db      	ldr	r3, [r3, #12]
 8000e0e:	613b      	str	r3, [r7, #16]
 8000e10:	697b      	ldr	r3, [r7, #20]
 8000e12:	005b      	lsls	r3, r3, #1
 8000e14:	2203      	movs	r2, #3
 8000e16:	409a      	lsls	r2, r3
 8000e18:	0013      	movs	r3, r2
 8000e1a:	43da      	mvns	r2, r3
 8000e1c:	693b      	ldr	r3, [r7, #16]
 8000e1e:	4013      	ands	r3, r2
 8000e20:	613b      	str	r3, [r7, #16]
 8000e22:	683b      	ldr	r3, [r7, #0]
 8000e24:	689a      	ldr	r2, [r3, #8]
 8000e26:	697b      	ldr	r3, [r7, #20]
 8000e28:	005b      	lsls	r3, r3, #1
 8000e2a:	409a      	lsls	r2, r3
 8000e2c:	0013      	movs	r3, r2
 8000e2e:	693a      	ldr	r2, [r7, #16]
 8000e30:	4313      	orrs	r3, r2
 8000e32:	613b      	str	r3, [r7, #16]
 8000e34:	687b      	ldr	r3, [r7, #4]
 8000e36:	693a      	ldr	r2, [r7, #16]
 8000e38:	60da      	str	r2, [r3, #12]
 8000e3a:	683b      	ldr	r3, [r7, #0]
 8000e3c:	685b      	ldr	r3, [r3, #4]
 8000e3e:	2203      	movs	r2, #3
 8000e40:	4013      	ands	r3, r2
 8000e42:	2b02      	cmp	r3, #2
 8000e44:	d123      	bne.n	8000e8e <HAL_GPIO_Init+0x132>
 8000e46:	697b      	ldr	r3, [r7, #20]
 8000e48:	08da      	lsrs	r2, r3, #3
 8000e4a:	687b      	ldr	r3, [r7, #4]
 8000e4c:	3208      	adds	r2, #8
 8000e4e:	0092      	lsls	r2, r2, #2
 8000e50:	58d3      	ldr	r3, [r2, r3]
 8000e52:	613b      	str	r3, [r7, #16]
 8000e54:	697b      	ldr	r3, [r7, #20]
 8000e56:	2207      	movs	r2, #7
 8000e58:	4013      	ands	r3, r2
 8000e5a:	009b      	lsls	r3, r3, #2
 8000e5c:	220f      	movs	r2, #15
 8000e5e:	409a      	lsls	r2, r3
 8000e60:	0013      	movs	r3, r2
 8000e62:	43da      	mvns	r2, r3
 8000e64:	693b      	ldr	r3, [r7, #16]
 8000e66:	4013      	ands	r3, r2
 8000e68:	613b      	str	r3, [r7, #16]
 8000e6a:	683b      	ldr	r3, [r7, #0]
 8000e6c:	691a      	ldr	r2, [r3, #16]
 8000e6e:	697b      	ldr	r3, [r7, #20]
 8000e70:	2107      	movs	r1, #7
 8000e72:	400b      	ands	r3, r1
 8000e74:	009b      	lsls	r3, r3, #2
 8000e76:	409a      	lsls	r2, r3
 8000e78:	0013      	movs	r3, r2
 8000e7a:	693a      	ldr	r2, [r7, #16]
 8000e7c:	4313      	orrs	r3, r2
 8000e7e:	613b      	str	r3, [r7, #16]
 8000e80:	697b      	ldr	r3, [r7, #20]
 8000e82:	08da      	lsrs	r2, r3, #3
 8000e84:	687b      	ldr	r3, [r7, #4]
 8000e86:	3208      	adds	r2, #8
 8000e88:	0092      	lsls	r2, r2, #2
 8000e8a:	6939      	ldr	r1, [r7, #16]
 8000e8c:	50d1      	str	r1, [r2, r3]
 8000e8e:	687b      	ldr	r3, [r7, #4]
 8000e90:	681b      	ldr	r3, [r3, #0]
 8000e92:	613b      	str	r3, [r7, #16]
 8000e94:	697b      	ldr	r3, [r7, #20]
 8000e96:	005b      	lsls	r3, r3, #1
 8000e98:	2203      	movs	r2, #3
 8000e9a:	409a      	lsls	r2, r3
 8000e9c:	0013      	movs	r3, r2
 8000e9e:	43da      	mvns	r2, r3
 8000ea0:	693b      	ldr	r3, [r7, #16]
 8000ea2:	4013      	ands	r3, r2
 8000ea4:	613b      	str	r3, [r7, #16]
 8000ea6:	683b      	ldr	r3, [r7, #0]
 8000ea8:	685b      	ldr	r3, [r3, #4]
 8000eaa:	2203      	movs	r2, #3
 8000eac:	401a      	ands	r2, r3
 8000eae:	697b      	ldr	r3, [r7, #20]
 8000eb0:	005b      	lsls	r3, r3, #1
 8000eb2:	409a      	lsls	r2, r3
 8000eb4:	0013      	movs	r3, r2
 8000eb6:	693a      	ldr	r2, [r7, #16]
 8000eb8:	4313      	orrs	r3, r2
 8000eba:	613b      	str	r3, [r7, #16]
 8000ebc:	687b      	ldr	r3, [r7, #4]
 8000ebe:	693a      	ldr	r2, [r7, #16]
 8000ec0:	601a      	str	r2, [r3, #0]
 8000ec2:	683b      	ldr	r3, [r7, #0]
 8000ec4:	685a      	ldr	r2, [r3, #4]
 8000ec6:	23c0      	movs	r3, #192	@ 0xc0
 8000ec8:	029b      	lsls	r3, r3, #10
 8000eca:	4013      	ands	r3, r2
 8000ecc:	d100      	bne.n	8000ed0 <HAL_GPIO_Init+0x174>
 8000ece:	e092      	b.n	8000ff6 <HAL_GPIO_Init+0x29a>
 8000ed0:	4a50      	ldr	r2, [pc, #320]	@ (8001014 <HAL_GPIO_Init+0x2b8>)
 8000ed2:	697b      	ldr	r3, [r7, #20]
 8000ed4:	089b      	lsrs	r3, r3, #2
 8000ed6:	3318      	adds	r3, #24
 8000ed8:	009b      	lsls	r3, r3, #2
 8000eda:	589b      	ldr	r3, [r3, r2]
 8000edc:	613b      	str	r3, [r7, #16]
 8000ede:	697b      	ldr	r3, [r7, #20]
 8000ee0:	2203      	movs	r2, #3
 8000ee2:	4013      	ands	r3, r2
 8000ee4:	00db      	lsls	r3, r3, #3
 8000ee6:	220f      	movs	r2, #15
 8000ee8:	409a      	lsls	r2, r3
 8000eea:	0013      	movs	r3, r2
 8000eec:	43da      	mvns	r2, r3
 8000eee:	693b      	ldr	r3, [r7, #16]
 8000ef0:	4013      	ands	r3, r2
 8000ef2:	613b      	str	r3, [r7, #16]
 8000ef4:	687a      	ldr	r2, [r7, #4]
 8000ef6:	23a0      	movs	r3, #160	@ 0xa0
 8000ef8:	05db      	lsls	r3, r3, #23
 8000efa:	429a      	cmp	r2, r3
 8000efc:	d013      	beq.n	8000f26 <HAL_GPIO_Init+0x1ca>
 8000efe:	687b      	ldr	r3, [r7, #4]
 8000f00:	4a45      	ldr	r2, [pc, #276]	@ (8001018 <HAL_GPIO_Init+0x2bc>)
 8000f02:	4293      	cmp	r3, r2
 8000f04:	d00d      	beq.n	8000f22 <HAL_GPIO_Init+0x1c6>
 8000f06:	687b      	ldr	r3, [r7, #4]
 8000f08:	4a44      	ldr	r2, [pc, #272]	@ (800101c <HAL_GPIO_Init+0x2c0>)
 8000f0a:	4293      	cmp	r3, r2
 8000f0c:	d007      	beq.n	8000f1e <HAL_GPIO_Init+0x1c2>
 8000f0e:	687b      	ldr	r3, [r7, #4]
 8000f10:	4a43      	ldr	r2, [pc, #268]	@ (8001020 <HAL_GPIO_Init+0x2c4>)
 8000f12:	4293      	cmp	r3, r2
 8000f14:	d101      	bne.n	8000f1a <HAL_GPIO_Init+0x1be>
 8000f16:	2303      	movs	r3, #3
 8000f18:	e006      	b.n	8000f28 <HAL_GPIO_Init+0x1cc>
 8000f1a:	2305      	movs	r3, #5
 8000f1c:	e004      	b.n	8000f28 <HAL_GPIO_Init+0x1cc>
 8000f1e:	2302      	movs	r3, #2
 8000f20:	e002      	b.n	8000f28 <HAL_GPIO_Init+0x1cc>
 8000f22:	2301      	movs	r3, #1
 8000f24:	e000      	b.n	8000f28 <HAL_GPIO_Init+0x1cc>
 8000f26:	2300      	movs	r3, #0
 8000f28:	697a      	ldr	r2, [r7, #20]
 8000f2a:	2103      	movs	r1, #3
 8000f2c:	400a      	ands	r2, r1
 8000f2e:	00d2      	lsls	r2, r2, #3
 8000f30:	4093      	lsls	r3, r2
 8000f32:	693a      	ldr	r2, [r7, #16]
 8000f34:	4313      	orrs	r3, r2
 8000f36:	613b      	str	r3, [r7, #16]
 8000f38:	4936      	ldr	r1, [pc, #216]	@ (8001014 <HAL_GPIO_Init+0x2b8>)
 8000f3a:	697b      	ldr	r3, [r7, #20]
 8000f3c:	089b      	lsrs	r3, r3, #2
 8000f3e:	3318      	adds	r3, #24
 8000f40:	009b      	lsls	r3, r3, #2
 8000f42:	693a      	ldr	r2, [r7, #16]
 8000f44:	505a      	str	r2, [r3, r1]
 8000f46:	4b33      	ldr	r3, [pc, #204]	@ (8001014 <HAL_GPIO_Init+0x2b8>)
 8000f48:	681b      	ldr	r3, [r3, #0]
 8000f4a:	613b      	str	r3, [r7, #16]
 8000f4c:	68fb      	ldr	r3, [r7, #12]
 8000f4e:	43da      	mvns	r2, r3
 8000f50:	693b      	ldr	r3, [r7, #16]
 8000f52:	4013      	ands	r3, r2
 8000f54:	613b      	str	r3, [r7, #16]
 8000f56:	683b      	ldr	r3, [r7, #0]
 8000f58:	685a      	ldr	r2, [r3, #4]
 8000f5a:	2380      	movs	r3, #128	@ 0x80
 8000f5c:	035b      	lsls	r3, r3, #13
 8000f5e:	4013      	ands	r3, r2
 8000f60:	d003      	beq.n	8000f6a <HAL_GPIO_Init+0x20e>
 8000f62:	693a      	ldr	r2, [r7, #16]
 8000f64:	68fb      	ldr	r3, [r7, #12]
 8000f66:	4313      	orrs	r3, r2
 8000f68:	613b      	str	r3, [r7, #16]
 8000f6a:	4b2a      	ldr	r3, [pc, #168]	@ (8001014 <HAL_GPIO_Init+0x2b8>)
 8000f6c:	693a      	ldr	r2, [r7, #16]
 8000f6e:	601a      	str	r2, [r3, #0]
 8000f70:	4b28      	ldr	r3, [pc, #160]	@ (8001014 <HAL_GPIO_Init+0x2b8>)
 8000f72:	685b      	ldr	r3, [r3, #4]
 8000f74:	613b      	str	r3, [r7, #16]
 8000f76:	68fb      	ldr	r3, [r7, #12]
 8000f78:	43da      	mvns	r2, r3
 8000f7a:	693b      	ldr	r3, [r7, #16]
 8000f7c:	4013      	ands	r3, r2
 8000f7e:	613b      	str	r3, [r7, #16]
 8000f80:	683b      	ldr	r3, [r7, #0]
 8000f82:	685a      	ldr	r2, [r3, #4]
 8000f84:	2380      	movs	r3, #128	@ 0x80
 8000f86:	039b      	lsls	r3, r3, #14
 8000f88:	4013      	ands	r3, r2
 8000f8a:	d003      	beq.n	8000f94 <HAL_GPIO_Init+0x238>
 8000f8c:	693a      	ldr	r2, [r7, #16]
 8000f8e:	68fb      	ldr	r3, [r7, #12]
 8000f90:	4313      	orrs	r3, r2
 8000f92:	613b      	str	r3, [r7, #16]
 8000f94:	4b1f      	ldr	r3, [pc, #124]	@ (8001014 <HAL_GPIO_Init+0x2b8>)
 8000f96:	693a      	ldr	r2, [r7, #16]
 8000f98:	605a      	str	r2, [r3, #4]
 8000f9a:	4a1e      	ldr	r2, [pc, #120]	@ (8001014 <HAL_GPIO_Init+0x2b8>)
 8000f9c:	2384      	movs	r3, #132	@ 0x84
 8000f9e:	58d3      	ldr	r3, [r2, r3]
 8000fa0:	613b      	str	r3, [r7, #16]
 8000fa2:	68fb      	ldr	r3, [r7, #12]
 8000fa4:	43da      	mvns	r2, r3
 8000fa6:	693b      	ldr	r3, [r7, #16]
 8000fa8:	4013      	ands	r3, r2
 8000faa:	613b      	str	r3, [r7, #16]
 8000fac:	683b      	ldr	r3, [r7, #0]
 8000fae:	685a      	ldr	r2, [r3, #4]
 8000fb0:	2380      	movs	r3, #128	@ 0x80
 8000fb2:	029b      	lsls	r3, r3, #10
 8000fb4:	4013      	ands	r3, r2
 8000fb6:	d003      	beq.n	8000fc0 <HAL_GPIO_Init+0x264>
 8000fb8:	693a      	ldr	r2, [r7, #16]
 8000fba:	68fb      	ldr	r3, [r7, #12]
 8000fbc:	4313      	orrs	r3, r2
 8000fbe:	613b      	str	r3, [r7, #16]
 8000fc0:	4914      	ldr	r1, [pc, #80]	@ (8001014 <HAL_GPIO_Init+0x2b8>)
 8000fc2:	2284      	movs	r2, #132	@ 0x84
 8000fc4:	693b      	ldr	r3, [r7, #16]
 8000fc6:	508b      	str	r3, [r1, r2]
 8000fc8:	4a12      	ldr	r2, [pc, #72]	@ (8001014 <HAL_GPIO_Init+0x2b8>)
 8000fca:	2380      	movs	r3, #128	@ 0x80
 8000fcc:	58d3      	ldr	r3, [r2, r3]
 8000fce:	613b      	str	r3, [r7, #16]
 8000fd0:	68fb      	ldr	r3, [r7, #12]
 8000fd2:	43da      	mvns	r2, r3
 8000fd4:	693b      	ldr	r3, [r7, #16]
 8000fd6:	4013      	ands	r3, r2
 8000fd8:	613b      	str	r3, [r7, #16]
 8000fda:	683b      	ldr	r3, [r7, #0]
 8000fdc:	685a      	ldr	r2, [r3, #4]
 8000fde:	2380      	movs	r3, #128	@ 0x80
 8000fe0:	025b      	lsls	r3, r3, #9
 8000fe2:	4013      	ands	r3, r2
 8000fe4:	d003      	beq.n	8000fee <HAL_GPIO_Init+0x292>
 8000fe6:	693a      	ldr	r2, [r7, #16]
 8000fe8:	68fb      	ldr	r3, [r7, #12]
 8000fea:	4313      	orrs	r3, r2
 8000fec:	613b      	str	r3, [r7, #16]
 8000fee:	4909      	ldr	r1, [pc, #36]	@ (8001014 <HAL_GPIO_Init+0x2b8>)
 8000ff0:	2280      	movs	r2, #128	@ 0x80
 8000ff2:	693b      	ldr	r3, [r7, #16]
 8000ff4:	508b      	str	r3, [r1, r2]
 8000ff6:	697b      	ldr	r3, [r7, #20]
 8000ff8:	3301      	adds	r3, #1
 8000ffa:	617b      	str	r3, [r7, #20]
 8000ffc:	683b      	ldr	r3, [r7, #0]
 8000ffe:	681a      	ldr	r2, [r3, #0]
 8001000:	697b      	ldr	r3, [r7, #20]
 8001002:	40da      	lsrs	r2, r3
 8001004:	1e13      	subs	r3, r2, #0
 8001006:	d000      	beq.n	800100a <HAL_GPIO_Init+0x2ae>
 8001008:	e6b0      	b.n	8000d6c <HAL_GPIO_Init+0x10>
 800100a:	46c0      	nop			@ (mov r8, r8)
 800100c:	46c0      	nop			@ (mov r8, r8)
 800100e:	46bd      	mov	sp, r7
 8001010:	b006      	add	sp, #24
 8001012:	bd80      	pop	{r7, pc}
 8001014:	40021800 	.word	0x40021800
 8001018:	50000400 	.word	0x50000400
 800101c:	50000800 	.word	0x50000800
 8001020:	50000c00 	.word	0x50000c00

08001024 <HAL_GPIO_ReadPin>:
 8001024:	b580      	push	{r7, lr}
 8001026:	b084      	sub	sp, #16
 8001028:	af00      	add	r7, sp, #0
 800102a:	6078      	str	r0, [r7, #4]
 800102c:	000a      	movs	r2, r1
 800102e:	1cbb      	adds	r3, r7, #2
 8001030:	801a      	strh	r2, [r3, #0]
 8001032:	687b      	ldr	r3, [r7, #4]
 8001034:	691b      	ldr	r3, [r3, #16]
 8001036:	1cba      	adds	r2, r7, #2
 8001038:	8812      	ldrh	r2, [r2, #0]
 800103a:	4013      	ands	r3, r2
 800103c:	d004      	beq.n	8001048 <HAL_GPIO_ReadPin+0x24>
 800103e:	230f      	movs	r3, #15
 8001040:	18fb      	adds	r3, r7, r3
 8001042:	2201      	movs	r2, #1
 8001044:	701a      	strb	r2, [r3, #0]
 8001046:	e003      	b.n	8001050 <HAL_GPIO_ReadPin+0x2c>
 8001048:	230f      	movs	r3, #15
 800104a:	18fb      	adds	r3, r7, r3
 800104c:	2200      	movs	r2, #0
 800104e:	701a      	strb	r2, [r3, #0]
 8001050:	230f      	movs	r3, #15
 8001052:	18fb      	adds	r3, r7, r3
 8001054:	781b      	ldrb	r3, [r3, #0]
 8001056:	0018      	movs	r0, r3
 8001058:	46bd      	mov	sp, r7
 800105a:	b004      	add	sp, #16
 800105c:	bd80      	pop	{r7, pc}

0800105e <HAL_GPIO_WritePin>:
 800105e:	b580      	push	{r7, lr}
 8001060:	b082      	sub	sp, #8
 8001062:	af00      	add	r7, sp, #0
 8001064:	6078      	str	r0, [r7, #4]
 8001066:	0008      	movs	r0, r1
 8001068:	0011      	movs	r1, r2
 800106a:	1cbb      	adds	r3, r7, #2
 800106c:	1c02      	adds	r2, r0, #0
 800106e:	801a      	strh	r2, [r3, #0]
 8001070:	1c7b      	adds	r3, r7, #1
 8001072:	1c0a      	adds	r2, r1, #0
 8001074:	701a      	strb	r2, [r3, #0]
 8001076:	1c7b      	adds	r3, r7, #1
 8001078:	781b      	ldrb	r3, [r3, #0]
 800107a:	2b00      	cmp	r3, #0
 800107c:	d004      	beq.n	8001088 <HAL_GPIO_WritePin+0x2a>
 800107e:	1cbb      	adds	r3, r7, #2
 8001080:	881a      	ldrh	r2, [r3, #0]
 8001082:	687b      	ldr	r3, [r7, #4]
 8001084:	619a      	str	r2, [r3, #24]
 8001086:	e003      	b.n	8001090 <HAL_GPIO_WritePin+0x32>
 8001088:	1cbb      	adds	r3, r7, #2
 800108a:	881a      	ldrh	r2, [r3, #0]
 800108c:	687b      	ldr	r3, [r7, #4]
 800108e:	629a      	str	r2, [r3, #40]	@ 0x28
 8001090:	46c0      	nop			@ (mov r8, r8)
 8001092:	46bd      	mov	sp, r7
 8001094:	b002      	add	sp, #8
 8001096:	bd80      	pop	{r7, pc}

08001098 <HAL_GPIO_EXTI_IRQHandler>:
 8001098:	b580      	push	{r7, lr}
 800109a:	b082      	sub	sp, #8
 800109c:	af00      	add	r7, sp, #0
 800109e:	0002      	movs	r2, r0
 80010a0:	1dbb      	adds	r3, r7, #6
 80010a2:	801a      	strh	r2, [r3, #0]
 80010a4:	4b10      	ldr	r3, [pc, #64]	@ (80010e8 <HAL_GPIO_EXTI_IRQHandler+0x50>)
 80010a6:	68db      	ldr	r3, [r3, #12]
 80010a8:	1dba      	adds	r2, r7, #6
 80010aa:	8812      	ldrh	r2, [r2, #0]
 80010ac:	4013      	ands	r3, r2
 80010ae:	d008      	beq.n	80010c2 <HAL_GPIO_EXTI_IRQHandler+0x2a>
 80010b0:	4b0d      	ldr	r3, [pc, #52]	@ (80010e8 <HAL_GPIO_EXTI_IRQHandler+0x50>)
 80010b2:	1dba      	adds	r2, r7, #6
 80010b4:	8812      	ldrh	r2, [r2, #0]
 80010b6:	60da      	str	r2, [r3, #12]
 80010b8:	1dbb      	adds	r3, r7, #6
 80010ba:	881b      	ldrh	r3, [r3, #0]
 80010bc:	0018      	movs	r0, r3
 80010be:	f000 f815 	bl	80010ec <HAL_GPIO_EXTI_Rising_Callback>
 80010c2:	4b09      	ldr	r3, [pc, #36]	@ (80010e8 <HAL_GPIO_EXTI_IRQHandler+0x50>)
 80010c4:	691b      	ldr	r3, [r3, #16]
 80010c6:	1dba      	adds	r2, r7, #6
 80010c8:	8812      	ldrh	r2, [r2, #0]
 80010ca:	4013      	ands	r3, r2
 80010cc:	d008      	beq.n	80010e0 <HAL_GPIO_EXTI_IRQHandler+0x48>
 80010ce:	4b06      	ldr	r3, [pc, #24]	@ (80010e8 <HAL_GPIO_EXTI_IRQHandler+0x50>)
 80010d0:	1dba      	adds	r2, r7, #6
 80010d2:	8812      	ldrh	r2, [r2, #0]
 80010d4:	611a      	str	r2, [r3, #16]
 80010d6:	1dbb      	adds	r3, r7, #6
 80010d8:	881b      	ldrh	r3, [r3, #0]
 80010da:	0018      	movs	r0, r3
 80010dc:	f000 f810 	bl	8001100 <HAL_GPIO_EXTI_Falling_Callback>
 80010e0:	46c0      	nop			@ (mov r8, r8)
 80010e2:	46bd      	mov	sp, r7
 80010e4:	b002      	add	sp, #8
 80010e6:	bd80      	pop	{r7, pc}
 80010e8:	40021800 	.word	0x40021800

080010ec <HAL_GPIO_EXTI_Rising_Callback>:
 80010ec:	b580      	push	{r7, lr}
 80010ee:	b082      	sub	sp, #8
 80010f0:	af00      	add	r7, sp, #0
 80010f2:	0002      	movs	r2, r0
 80010f4:	1dbb      	adds	r3, r7, #6
 80010f6:	801a      	strh	r2, [r3, #0]
 80010f8:	46c0      	nop			@ (mov r8, r8)
 80010fa:	46bd      	mov	sp, r7
 80010fc:	b002      	add	sp, #8
 80010fe:	bd80      	pop	{r7, pc}

08001100 <HAL_GPIO_EXTI_Falling_Callback>:
 8001100:	b580      	push	{r7, lr}
 8001102:	b082      	sub	sp, #8
 8001104:	af00      	add	r7, sp, #0
 8001106:	0002      	movs	r2, r0
 8001108:	1dbb      	adds	r3, r7, #6
 800110a:	801a      	strh	r2, [r3, #0]
 800110c:	46c0      	nop			@ (mov r8, r8)
 800110e:	46bd      	mov	sp, r7
 8001110:	b002      	add	sp, #8
 8001112:	bd80      	pop	{r7, pc}

08001114 <HAL_PWREx_ControlVoltageScaling>:
 8001114:	b580      	push	{r7, lr}
 8001116:	b084      	sub	sp, #16
 8001118:	af00      	add	r7, sp, #0
 800111a:	6078      	str	r0, [r7, #4]
 800111c:	4b19      	ldr	r3, [pc, #100]	@ (8001184 <HAL_PWREx_ControlVoltageScaling+0x70>)
 800111e:	681b      	ldr	r3, [r3, #0]
 8001120:	4a19      	ldr	r2, [pc, #100]	@ (8001188 <HAL_PWREx_ControlVoltageScaling+0x74>)
 8001122:	4013      	ands	r3, r2
 8001124:	0019      	movs	r1, r3
 8001126:	4b17      	ldr	r3, [pc, #92]	@ (8001184 <HAL_PWREx_ControlVoltageScaling+0x70>)
 8001128:	687a      	ldr	r2, [r7, #4]
 800112a:	430a      	orrs	r2, r1
 800112c:	601a      	str	r2, [r3, #0]
 800112e:	687a      	ldr	r2, [r7, #4]
 8001130:	2380      	movs	r3, #128	@ 0x80
 8001132:	009b      	lsls	r3, r3, #2
 8001134:	429a      	cmp	r2, r3
 8001136:	d11f      	bne.n	8001178 <HAL_PWREx_ControlVoltageScaling+0x64>
 8001138:	4b14      	ldr	r3, [pc, #80]	@ (800118c <HAL_PWREx_ControlVoltageScaling+0x78>)
 800113a:	681a      	ldr	r2, [r3, #0]
 800113c:	0013      	movs	r3, r2
 800113e:	005b      	lsls	r3, r3, #1
 8001140:	189b      	adds	r3, r3, r2
 8001142:	005b      	lsls	r3, r3, #1
 8001144:	4912      	ldr	r1, [pc, #72]	@ (8001190 <HAL_PWREx_ControlVoltageScaling+0x7c>)
 8001146:	0018      	movs	r0, r3
 8001148:	f7fe ffda 	bl	8000100 <__udivsi3>
 800114c:	0003      	movs	r3, r0
 800114e:	3301      	adds	r3, #1
 8001150:	60fb      	str	r3, [r7, #12]
 8001152:	e008      	b.n	8001166 <HAL_PWREx_ControlVoltageScaling+0x52>
 8001154:	68fb      	ldr	r3, [r7, #12]
 8001156:	2b00      	cmp	r3, #0
 8001158:	d003      	beq.n	8001162 <HAL_PWREx_ControlVoltageScaling+0x4e>
 800115a:	68fb      	ldr	r3, [r7, #12]
 800115c:	3b01      	subs	r3, #1
 800115e:	60fb      	str	r3, [r7, #12]
 8001160:	e001      	b.n	8001166 <HAL_PWREx_ControlVoltageScaling+0x52>
 8001162:	2303      	movs	r3, #3
 8001164:	e009      	b.n	800117a <HAL_PWREx_ControlVoltageScaling+0x66>
 8001166:	4b07      	ldr	r3, [pc, #28]	@ (8001184 <HAL_PWREx_ControlVoltageScaling+0x70>)
 8001168:	695a      	ldr	r2, [r3, #20]
 800116a:	2380      	movs	r3, #128	@ 0x80
 800116c:	00db      	lsls	r3, r3, #3
 800116e:	401a      	ands	r2, r3
 8001170:	2380      	movs	r3, #128	@ 0x80
 8001172:	00db      	lsls	r3, r3, #3
 8001174:	429a      	cmp	r2, r3
 8001176:	d0ed      	beq.n	8001154 <HAL_PWREx_ControlVoltageScaling+0x40>
 8001178:	2300      	movs	r3, #0
 800117a:	0018      	movs	r0, r3
 800117c:	46bd      	mov	sp, r7
 800117e:	b004      	add	sp, #16
 8001180:	bd80      	pop	{r7, pc}
 8001182:	46c0      	nop			@ (mov r8, r8)
 8001184:	40007000 	.word	0x40007000
 8001188:	fffff9ff 	.word	0xfffff9ff
 800118c:	20000000 	.word	0x20000000
 8001190:	000f4240 	.word	0x000f4240

08001194 <HAL_RCC_OscConfig>:
 8001194:	b580      	push	{r7, lr}
 8001196:	b088      	sub	sp, #32
 8001198:	af00      	add	r7, sp, #0
 800119a:	6078      	str	r0, [r7, #4]
 800119c:	687b      	ldr	r3, [r7, #4]
 800119e:	2b00      	cmp	r3, #0
 80011a0:	d101      	bne.n	80011a6 <HAL_RCC_OscConfig+0x12>
 80011a2:	2301      	movs	r3, #1
 80011a4:	e2f3      	b.n	800178e <HAL_RCC_OscConfig+0x5fa>
 80011a6:	687b      	ldr	r3, [r7, #4]
 80011a8:	681b      	ldr	r3, [r3, #0]
 80011aa:	2201      	movs	r2, #1
 80011ac:	4013      	ands	r3, r2
 80011ae:	d100      	bne.n	80011b2 <HAL_RCC_OscConfig+0x1e>
 80011b0:	e07c      	b.n	80012ac <HAL_RCC_OscConfig+0x118>
 80011b2:	4bc3      	ldr	r3, [pc, #780]	@ (80014c0 <HAL_RCC_OscConfig+0x32c>)
 80011b4:	689b      	ldr	r3, [r3, #8]
 80011b6:	2238      	movs	r2, #56	@ 0x38
 80011b8:	4013      	ands	r3, r2
 80011ba:	61bb      	str	r3, [r7, #24]
 80011bc:	4bc0      	ldr	r3, [pc, #768]	@ (80014c0 <HAL_RCC_OscConfig+0x32c>)
 80011be:	68db      	ldr	r3, [r3, #12]
 80011c0:	2203      	movs	r2, #3
 80011c2:	4013      	ands	r3, r2
 80011c4:	617b      	str	r3, [r7, #20]
 80011c6:	69bb      	ldr	r3, [r7, #24]
 80011c8:	2b10      	cmp	r3, #16
 80011ca:	d102      	bne.n	80011d2 <HAL_RCC_OscConfig+0x3e>
 80011cc:	697b      	ldr	r3, [r7, #20]
 80011ce:	2b03      	cmp	r3, #3
 80011d0:	d002      	beq.n	80011d8 <HAL_RCC_OscConfig+0x44>
 80011d2:	69bb      	ldr	r3, [r7, #24]
 80011d4:	2b08      	cmp	r3, #8
 80011d6:	d10b      	bne.n	80011f0 <HAL_RCC_OscConfig+0x5c>
 80011d8:	4bb9      	ldr	r3, [pc, #740]	@ (80014c0 <HAL_RCC_OscConfig+0x32c>)
 80011da:	681a      	ldr	r2, [r3, #0]
 80011dc:	2380      	movs	r3, #128	@ 0x80
 80011de:	029b      	lsls	r3, r3, #10
 80011e0:	4013      	ands	r3, r2
 80011e2:	d062      	beq.n	80012aa <HAL_RCC_OscConfig+0x116>
 80011e4:	687b      	ldr	r3, [r7, #4]
 80011e6:	685b      	ldr	r3, [r3, #4]
 80011e8:	2b00      	cmp	r3, #0
 80011ea:	d15e      	bne.n	80012aa <HAL_RCC_OscConfig+0x116>
 80011ec:	2301      	movs	r3, #1
 80011ee:	e2ce      	b.n	800178e <HAL_RCC_OscConfig+0x5fa>
 80011f0:	687b      	ldr	r3, [r7, #4]
 80011f2:	685a      	ldr	r2, [r3, #4]
 80011f4:	2380      	movs	r3, #128	@ 0x80
 80011f6:	025b      	lsls	r3, r3, #9
 80011f8:	429a      	cmp	r2, r3
 80011fa:	d107      	bne.n	800120c <HAL_RCC_OscConfig+0x78>
 80011fc:	4bb0      	ldr	r3, [pc, #704]	@ (80014c0 <HAL_RCC_OscConfig+0x32c>)
 80011fe:	681a      	ldr	r2, [r3, #0]
 8001200:	4baf      	ldr	r3, [pc, #700]	@ (80014c0 <HAL_RCC_OscConfig+0x32c>)
 8001202:	2180      	movs	r1, #128	@ 0x80
 8001204:	0249      	lsls	r1, r1, #9
 8001206:	430a      	orrs	r2, r1
 8001208:	601a      	str	r2, [r3, #0]
 800120a:	e020      	b.n	800124e <HAL_RCC_OscConfig+0xba>
 800120c:	687b      	ldr	r3, [r7, #4]
 800120e:	685a      	ldr	r2, [r3, #4]
 8001210:	23a0      	movs	r3, #160	@ 0xa0
 8001212:	02db      	lsls	r3, r3, #11
 8001214:	429a      	cmp	r2, r3
 8001216:	d10e      	bne.n	8001236 <HAL_RCC_OscConfig+0xa2>
 8001218:	4ba9      	ldr	r3, [pc, #676]	@ (80014c0 <HAL_RCC_OscConfig+0x32c>)
 800121a:	681a      	ldr	r2, [r3, #0]
 800121c:	4ba8      	ldr	r3, [pc, #672]	@ (80014c0 <HAL_RCC_OscConfig+0x32c>)
 800121e:	2180      	movs	r1, #128	@ 0x80
 8001220:	02c9      	lsls	r1, r1, #11
 8001222:	430a      	orrs	r2, r1
 8001224:	601a      	str	r2, [r3, #0]
 8001226:	4ba6      	ldr	r3, [pc, #664]	@ (80014c0 <HAL_RCC_OscConfig+0x32c>)
 8001228:	681a      	ldr	r2, [r3, #0]
 800122a:	4ba5      	ldr	r3, [pc, #660]	@ (80014c0 <HAL_RCC_OscConfig+0x32c>)
 800122c:	2180      	movs	r1, #128	@ 0x80
 800122e:	0249      	lsls	r1, r1, #9
 8001230:	430a      	orrs	r2, r1
 8001232:	601a      	str	r2, [r3, #0]
 8001234:	e00b      	b.n	800124e <HAL_RCC_OscConfig+0xba>
 8001236:	4ba2      	ldr	r3, [pc, #648]	@ (80014c0 <HAL_RCC_OscConfig+0x32c>)
 8001238:	681a      	ldr	r2, [r3, #0]
 800123a:	4ba1      	ldr	r3, [pc, #644]	@ (80014c0 <HAL_RCC_OscConfig+0x32c>)
 800123c:	49a1      	ldr	r1, [pc, #644]	@ (80014c4 <HAL_RCC_OscConfig+0x330>)
 800123e:	400a      	ands	r2, r1
 8001240:	601a      	str	r2, [r3, #0]
 8001242:	4b9f      	ldr	r3, [pc, #636]	@ (80014c0 <HAL_RCC_OscConfig+0x32c>)
 8001244:	681a      	ldr	r2, [r3, #0]
 8001246:	4b9e      	ldr	r3, [pc, #632]	@ (80014c0 <HAL_RCC_OscConfig+0x32c>)
 8001248:	499f      	ldr	r1, [pc, #636]	@ (80014c8 <HAL_RCC_OscConfig+0x334>)
 800124a:	400a      	ands	r2, r1
 800124c:	601a      	str	r2, [r3, #0]
 800124e:	687b      	ldr	r3, [r7, #4]
 8001250:	685b      	ldr	r3, [r3, #4]
 8001252:	2b00      	cmp	r3, #0
 8001254:	d014      	beq.n	8001280 <HAL_RCC_OscConfig+0xec>
 8001256:	f7ff fc99 	bl	8000b8c <HAL_GetTick>
 800125a:	0003      	movs	r3, r0
 800125c:	613b      	str	r3, [r7, #16]
 800125e:	e008      	b.n	8001272 <HAL_RCC_OscConfig+0xde>
 8001260:	f7ff fc94 	bl	8000b8c <HAL_GetTick>
 8001264:	0002      	movs	r2, r0
 8001266:	693b      	ldr	r3, [r7, #16]
 8001268:	1ad3      	subs	r3, r2, r3
 800126a:	2b64      	cmp	r3, #100	@ 0x64
 800126c:	d901      	bls.n	8001272 <HAL_RCC_OscConfig+0xde>
 800126e:	2303      	movs	r3, #3
 8001270:	e28d      	b.n	800178e <HAL_RCC_OscConfig+0x5fa>
 8001272:	4b93      	ldr	r3, [pc, #588]	@ (80014c0 <HAL_RCC_OscConfig+0x32c>)
 8001274:	681a      	ldr	r2, [r3, #0]
 8001276:	2380      	movs	r3, #128	@ 0x80
 8001278:	029b      	lsls	r3, r3, #10
 800127a:	4013      	ands	r3, r2
 800127c:	d0f0      	beq.n	8001260 <HAL_RCC_OscConfig+0xcc>
 800127e:	e015      	b.n	80012ac <HAL_RCC_OscConfig+0x118>
 8001280:	f7ff fc84 	bl	8000b8c <HAL_GetTick>
 8001284:	0003      	movs	r3, r0
 8001286:	613b      	str	r3, [r7, #16]
 8001288:	e008      	b.n	800129c <HAL_RCC_OscConfig+0x108>
 800128a:	f7ff fc7f 	bl	8000b8c <HAL_GetTick>
 800128e:	0002      	movs	r2, r0
 8001290:	693b      	ldr	r3, [r7, #16]
 8001292:	1ad3      	subs	r3, r2, r3
 8001294:	2b64      	cmp	r3, #100	@ 0x64
 8001296:	d901      	bls.n	800129c <HAL_RCC_OscConfig+0x108>
 8001298:	2303      	movs	r3, #3
 800129a:	e278      	b.n	800178e <HAL_RCC_OscConfig+0x5fa>
 800129c:	4b88      	ldr	r3, [pc, #544]	@ (80014c0 <HAL_RCC_OscConfig+0x32c>)
 800129e:	681a      	ldr	r2, [r3, #0]
 80012a0:	2380      	movs	r3, #128	@ 0x80
 80012a2:	029b      	lsls	r3, r3, #10
 80012a4:	4013      	ands	r3, r2
 80012a6:	d1f0      	bne.n	800128a <HAL_RCC_OscConfig+0xf6>
 80012a8:	e000      	b.n	80012ac <HAL_RCC_OscConfig+0x118>
 80012aa:	46c0      	nop			@ (mov r8, r8)
 80012ac:	687b      	ldr	r3, [r7, #4]
 80012ae:	681b      	ldr	r3, [r3, #0]
 80012b0:	2202      	movs	r2, #2
 80012b2:	4013      	ands	r3, r2
 80012b4:	d100      	bne.n	80012b8 <HAL_RCC_OscConfig+0x124>
 80012b6:	e099      	b.n	80013ec <HAL_RCC_OscConfig+0x258>
 80012b8:	4b81      	ldr	r3, [pc, #516]	@ (80014c0 <HAL_RCC_OscConfig+0x32c>)
 80012ba:	689b      	ldr	r3, [r3, #8]
 80012bc:	2238      	movs	r2, #56	@ 0x38
 80012be:	4013      	ands	r3, r2
 80012c0:	61bb      	str	r3, [r7, #24]
 80012c2:	4b7f      	ldr	r3, [pc, #508]	@ (80014c0 <HAL_RCC_OscConfig+0x32c>)
 80012c4:	68db      	ldr	r3, [r3, #12]
 80012c6:	2203      	movs	r2, #3
 80012c8:	4013      	ands	r3, r2
 80012ca:	617b      	str	r3, [r7, #20]
 80012cc:	69bb      	ldr	r3, [r7, #24]
 80012ce:	2b10      	cmp	r3, #16
 80012d0:	d102      	bne.n	80012d8 <HAL_RCC_OscConfig+0x144>
 80012d2:	697b      	ldr	r3, [r7, #20]
 80012d4:	2b02      	cmp	r3, #2
 80012d6:	d002      	beq.n	80012de <HAL_RCC_OscConfig+0x14a>
 80012d8:	69bb      	ldr	r3, [r7, #24]
 80012da:	2b00      	cmp	r3, #0
 80012dc:	d135      	bne.n	800134a <HAL_RCC_OscConfig+0x1b6>
 80012de:	4b78      	ldr	r3, [pc, #480]	@ (80014c0 <HAL_RCC_OscConfig+0x32c>)
 80012e0:	681a      	ldr	r2, [r3, #0]
 80012e2:	2380      	movs	r3, #128	@ 0x80
 80012e4:	00db      	lsls	r3, r3, #3
 80012e6:	4013      	ands	r3, r2
 80012e8:	d005      	beq.n	80012f6 <HAL_RCC_OscConfig+0x162>
 80012ea:	687b      	ldr	r3, [r7, #4]
 80012ec:	68db      	ldr	r3, [r3, #12]
 80012ee:	2b00      	cmp	r3, #0
 80012f0:	d101      	bne.n	80012f6 <HAL_RCC_OscConfig+0x162>
 80012f2:	2301      	movs	r3, #1
 80012f4:	e24b      	b.n	800178e <HAL_RCC_OscConfig+0x5fa>
 80012f6:	4b72      	ldr	r3, [pc, #456]	@ (80014c0 <HAL_RCC_OscConfig+0x32c>)
 80012f8:	685b      	ldr	r3, [r3, #4]
 80012fa:	4a74      	ldr	r2, [pc, #464]	@ (80014cc <HAL_RCC_OscConfig+0x338>)
 80012fc:	4013      	ands	r3, r2
 80012fe:	0019      	movs	r1, r3
 8001300:	687b      	ldr	r3, [r7, #4]
 8001302:	695b      	ldr	r3, [r3, #20]
 8001304:	021a      	lsls	r2, r3, #8
 8001306:	4b6e      	ldr	r3, [pc, #440]	@ (80014c0 <HAL_RCC_OscConfig+0x32c>)
 8001308:	430a      	orrs	r2, r1
 800130a:	605a      	str	r2, [r3, #4]
 800130c:	69bb      	ldr	r3, [r7, #24]
 800130e:	2b00      	cmp	r3, #0
 8001310:	d112      	bne.n	8001338 <HAL_RCC_OscConfig+0x1a4>
 8001312:	4b6b      	ldr	r3, [pc, #428]	@ (80014c0 <HAL_RCC_OscConfig+0x32c>)
 8001314:	681b      	ldr	r3, [r3, #0]
 8001316:	4a6e      	ldr	r2, [pc, #440]	@ (80014d0 <HAL_RCC_OscConfig+0x33c>)
 8001318:	4013      	ands	r3, r2
 800131a:	0019      	movs	r1, r3
 800131c:	687b      	ldr	r3, [r7, #4]
 800131e:	691a      	ldr	r2, [r3, #16]
 8001320:	4b67      	ldr	r3, [pc, #412]	@ (80014c0 <HAL_RCC_OscConfig+0x32c>)
 8001322:	430a      	orrs	r2, r1
 8001324:	601a      	str	r2, [r3, #0]
 8001326:	4b66      	ldr	r3, [pc, #408]	@ (80014c0 <HAL_RCC_OscConfig+0x32c>)
 8001328:	681b      	ldr	r3, [r3, #0]
 800132a:	0adb      	lsrs	r3, r3, #11
 800132c:	2207      	movs	r2, #7
 800132e:	4013      	ands	r3, r2
 8001330:	4a68      	ldr	r2, [pc, #416]	@ (80014d4 <HAL_RCC_OscConfig+0x340>)
 8001332:	40da      	lsrs	r2, r3
 8001334:	4b68      	ldr	r3, [pc, #416]	@ (80014d8 <HAL_RCC_OscConfig+0x344>)
 8001336:	601a      	str	r2, [r3, #0]
 8001338:	4b68      	ldr	r3, [pc, #416]	@ (80014dc <HAL_RCC_OscConfig+0x348>)
 800133a:	681b      	ldr	r3, [r3, #0]
 800133c:	0018      	movs	r0, r3
 800133e:	f7ff fbc9 	bl	8000ad4 <HAL_InitTick>
 8001342:	1e03      	subs	r3, r0, #0
 8001344:	d051      	beq.n	80013ea <HAL_RCC_OscConfig+0x256>
 8001346:	2301      	movs	r3, #1
 8001348:	e221      	b.n	800178e <HAL_RCC_OscConfig+0x5fa>
 800134a:	687b      	ldr	r3, [r7, #4]
 800134c:	68db      	ldr	r3, [r3, #12]
 800134e:	2b00      	cmp	r3, #0
 8001350:	d030      	beq.n	80013b4 <HAL_RCC_OscConfig+0x220>
 8001352:	4b5b      	ldr	r3, [pc, #364]	@ (80014c0 <HAL_RCC_OscConfig+0x32c>)
 8001354:	681b      	ldr	r3, [r3, #0]
 8001356:	4a5e      	ldr	r2, [pc, #376]	@ (80014d0 <HAL_RCC_OscConfig+0x33c>)
 8001358:	4013      	ands	r3, r2
 800135a:	0019      	movs	r1, r3
 800135c:	687b      	ldr	r3, [r7, #4]
 800135e:	691a      	ldr	r2, [r3, #16]
 8001360:	4b57      	ldr	r3, [pc, #348]	@ (80014c0 <HAL_RCC_OscConfig+0x32c>)
 8001362:	430a      	orrs	r2, r1
 8001364:	601a      	str	r2, [r3, #0]
 8001366:	4b56      	ldr	r3, [pc, #344]	@ (80014c0 <HAL_RCC_OscConfig+0x32c>)
 8001368:	681a      	ldr	r2, [r3, #0]
 800136a:	4b55      	ldr	r3, [pc, #340]	@ (80014c0 <HAL_RCC_OscConfig+0x32c>)
 800136c:	2180      	movs	r1, #128	@ 0x80
 800136e:	0049      	lsls	r1, r1, #1
 8001370:	430a      	orrs	r2, r1
 8001372:	601a      	str	r2, [r3, #0]
 8001374:	f7ff fc0a 	bl	8000b8c <HAL_GetTick>
 8001378:	0003      	movs	r3, r0
 800137a:	613b      	str	r3, [r7, #16]
 800137c:	e008      	b.n	8001390 <HAL_RCC_OscConfig+0x1fc>
 800137e:	f7ff fc05 	bl	8000b8c <HAL_GetTick>
 8001382:	0002      	movs	r2, r0
 8001384:	693b      	ldr	r3, [r7, #16]
 8001386:	1ad3      	subs	r3, r2, r3
 8001388:	2b02      	cmp	r3, #2
 800138a:	d901      	bls.n	8001390 <HAL_RCC_OscConfig+0x1fc>
 800138c:	2303      	movs	r3, #3
 800138e:	e1fe      	b.n	800178e <HAL_RCC_OscConfig+0x5fa>
 8001390:	4b4b      	ldr	r3, [pc, #300]	@ (80014c0 <HAL_RCC_OscConfig+0x32c>)
 8001392:	681a      	ldr	r2, [r3, #0]
 8001394:	2380      	movs	r3, #128	@ 0x80
 8001396:	00db      	lsls	r3, r3, #3
 8001398:	4013      	ands	r3, r2
 800139a:	d0f0      	beq.n	800137e <HAL_RCC_OscConfig+0x1ea>
 800139c:	4b48      	ldr	r3, [pc, #288]	@ (80014c0 <HAL_RCC_OscConfig+0x32c>)
 800139e:	685b      	ldr	r3, [r3, #4]
 80013a0:	4a4a      	ldr	r2, [pc, #296]	@ (80014cc <HAL_RCC_OscConfig+0x338>)
 80013a2:	4013      	ands	r3, r2
 80013a4:	0019      	movs	r1, r3
 80013a6:	687b      	ldr	r3, [r7, #4]
 80013a8:	695b      	ldr	r3, [r3, #20]
 80013aa:	021a      	lsls	r2, r3, #8
 80013ac:	4b44      	ldr	r3, [pc, #272]	@ (80014c0 <HAL_RCC_OscConfig+0x32c>)
 80013ae:	430a      	orrs	r2, r1
 80013b0:	605a      	str	r2, [r3, #4]
 80013b2:	e01b      	b.n	80013ec <HAL_RCC_OscConfig+0x258>
 80013b4:	4b42      	ldr	r3, [pc, #264]	@ (80014c0 <HAL_RCC_OscConfig+0x32c>)
 80013b6:	681a      	ldr	r2, [r3, #0]
 80013b8:	4b41      	ldr	r3, [pc, #260]	@ (80014c0 <HAL_RCC_OscConfig+0x32c>)
 80013ba:	4949      	ldr	r1, [pc, #292]	@ (80014e0 <HAL_RCC_OscConfig+0x34c>)
 80013bc:	400a      	ands	r2, r1
 80013be:	601a      	str	r2, [r3, #0]
 80013c0:	f7ff fbe4 	bl	8000b8c <HAL_GetTick>
 80013c4:	0003      	movs	r3, r0
 80013c6:	613b      	str	r3, [r7, #16]
 80013c8:	e008      	b.n	80013dc <HAL_RCC_OscConfig+0x248>
 80013ca:	f7ff fbdf 	bl	8000b8c <HAL_GetTick>
 80013ce:	0002      	movs	r2, r0
 80013d0:	693b      	ldr	r3, [r7, #16]
 80013d2:	1ad3      	subs	r3, r2, r3
 80013d4:	2b02      	cmp	r3, #2
 80013d6:	d901      	bls.n	80013dc <HAL_RCC_OscConfig+0x248>
 80013d8:	2303      	movs	r3, #3
 80013da:	e1d8      	b.n	800178e <HAL_RCC_OscConfig+0x5fa>
 80013dc:	4b38      	ldr	r3, [pc, #224]	@ (80014c0 <HAL_RCC_OscConfig+0x32c>)
 80013de:	681a      	ldr	r2, [r3, #0]
 80013e0:	2380      	movs	r3, #128	@ 0x80
 80013e2:	00db      	lsls	r3, r3, #3
 80013e4:	4013      	ands	r3, r2
 80013e6:	d1f0      	bne.n	80013ca <HAL_RCC_OscConfig+0x236>
 80013e8:	e000      	b.n	80013ec <HAL_RCC_OscConfig+0x258>
 80013ea:	46c0      	nop			@ (mov r8, r8)
 80013ec:	687b      	ldr	r3, [r7, #4]
 80013ee:	681b      	ldr	r3, [r3, #0]
 80013f0:	2208      	movs	r2, #8
 80013f2:	4013      	ands	r3, r2
 80013f4:	d047      	beq.n	8001486 <HAL_RCC_OscConfig+0x2f2>
 80013f6:	4b32      	ldr	r3, [pc, #200]	@ (80014c0 <HAL_RCC_OscConfig+0x32c>)
 80013f8:	689b      	ldr	r3, [r3, #8]
 80013fa:	2238      	movs	r2, #56	@ 0x38
 80013fc:	4013      	ands	r3, r2
 80013fe:	2b18      	cmp	r3, #24
 8001400:	d10a      	bne.n	8001418 <HAL_RCC_OscConfig+0x284>
 8001402:	4b2f      	ldr	r3, [pc, #188]	@ (80014c0 <HAL_RCC_OscConfig+0x32c>)
 8001404:	6e1b      	ldr	r3, [r3, #96]	@ 0x60
 8001406:	2202      	movs	r2, #2
 8001408:	4013      	ands	r3, r2
 800140a:	d03c      	beq.n	8001486 <HAL_RCC_OscConfig+0x2f2>
 800140c:	687b      	ldr	r3, [r7, #4]
 800140e:	699b      	ldr	r3, [r3, #24]
 8001410:	2b00      	cmp	r3, #0
 8001412:	d138      	bne.n	8001486 <HAL_RCC_OscConfig+0x2f2>
 8001414:	2301      	movs	r3, #1
 8001416:	e1ba      	b.n	800178e <HAL_RCC_OscConfig+0x5fa>
 8001418:	687b      	ldr	r3, [r7, #4]
 800141a:	699b      	ldr	r3, [r3, #24]
 800141c:	2b00      	cmp	r3, #0
 800141e:	d019      	beq.n	8001454 <HAL_RCC_OscConfig+0x2c0>
 8001420:	4b27      	ldr	r3, [pc, #156]	@ (80014c0 <HAL_RCC_OscConfig+0x32c>)
 8001422:	6e1a      	ldr	r2, [r3, #96]	@ 0x60
 8001424:	4b26      	ldr	r3, [pc, #152]	@ (80014c0 <HAL_RCC_OscConfig+0x32c>)
 8001426:	2101      	movs	r1, #1
 8001428:	430a      	orrs	r2, r1
 800142a:	661a      	str	r2, [r3, #96]	@ 0x60
 800142c:	f7ff fbae 	bl	8000b8c <HAL_GetTick>
 8001430:	0003      	movs	r3, r0
 8001432:	613b      	str	r3, [r7, #16]
 8001434:	e008      	b.n	8001448 <HAL_RCC_OscConfig+0x2b4>
 8001436:	f7ff fba9 	bl	8000b8c <HAL_GetTick>
 800143a:	0002      	movs	r2, r0
 800143c:	693b      	ldr	r3, [r7, #16]
 800143e:	1ad3      	subs	r3, r2, r3
 8001440:	2b02      	cmp	r3, #2
 8001442:	d901      	bls.n	8001448 <HAL_RCC_OscConfig+0x2b4>
 8001444:	2303      	movs	r3, #3
 8001446:	e1a2      	b.n	800178e <HAL_RCC_OscConfig+0x5fa>
 8001448:	4b1d      	ldr	r3, [pc, #116]	@ (80014c0 <HAL_RCC_OscConfig+0x32c>)
 800144a:	6e1b      	ldr	r3, [r3, #96]	@ 0x60
 800144c:	2202      	movs	r2, #2
 800144e:	4013      	ands	r3, r2
 8001450:	d0f1      	beq.n	8001436 <HAL_RCC_OscConfig+0x2a2>
 8001452:	e018      	b.n	8001486 <HAL_RCC_OscConfig+0x2f2>
 8001454:	4b1a      	ldr	r3, [pc, #104]	@ (80014c0 <HAL_RCC_OscConfig+0x32c>)
 8001456:	6e1a      	ldr	r2, [r3, #96]	@ 0x60
 8001458:	4b19      	ldr	r3, [pc, #100]	@ (80014c0 <HAL_RCC_OscConfig+0x32c>)
 800145a:	2101      	movs	r1, #1
 800145c:	438a      	bics	r2, r1
 800145e:	661a      	str	r2, [r3, #96]	@ 0x60
 8001460:	f7ff fb94 	bl	8000b8c <HAL_GetTick>
 8001464:	0003      	movs	r3, r0
 8001466:	613b      	str	r3, [r7, #16]
 8001468:	e008      	b.n	800147c <HAL_RCC_OscConfig+0x2e8>
 800146a:	f7ff fb8f 	bl	8000b8c <HAL_GetTick>
 800146e:	0002      	movs	r2, r0
 8001470:	693b      	ldr	r3, [r7, #16]
 8001472:	1ad3      	subs	r3, r2, r3
 8001474:	2b02      	cmp	r3, #2
 8001476:	d901      	bls.n	800147c <HAL_RCC_OscConfig+0x2e8>
 8001478:	2303      	movs	r3, #3
 800147a:	e188      	b.n	800178e <HAL_RCC_OscConfig+0x5fa>
 800147c:	4b10      	ldr	r3, [pc, #64]	@ (80014c0 <HAL_RCC_OscConfig+0x32c>)
 800147e:	6e1b      	ldr	r3, [r3, #96]	@ 0x60
 8001480:	2202      	movs	r2, #2
 8001482:	4013      	ands	r3, r2
 8001484:	d1f1      	bne.n	800146a <HAL_RCC_OscConfig+0x2d6>
 8001486:	687b      	ldr	r3, [r7, #4]
 8001488:	681b      	ldr	r3, [r3, #0]
 800148a:	2204      	movs	r2, #4
 800148c:	4013      	ands	r3, r2
 800148e:	d100      	bne.n	8001492 <HAL_RCC_OscConfig+0x2fe>
 8001490:	e0c6      	b.n	8001620 <HAL_RCC_OscConfig+0x48c>
 8001492:	231f      	movs	r3, #31
 8001494:	18fb      	adds	r3, r7, r3
 8001496:	2200      	movs	r2, #0
 8001498:	701a      	strb	r2, [r3, #0]
 800149a:	4b09      	ldr	r3, [pc, #36]	@ (80014c0 <HAL_RCC_OscConfig+0x32c>)
 800149c:	689b      	ldr	r3, [r3, #8]
 800149e:	2238      	movs	r2, #56	@ 0x38
 80014a0:	4013      	ands	r3, r2
 80014a2:	2b20      	cmp	r3, #32
 80014a4:	d11e      	bne.n	80014e4 <HAL_RCC_OscConfig+0x350>
 80014a6:	4b06      	ldr	r3, [pc, #24]	@ (80014c0 <HAL_RCC_OscConfig+0x32c>)
 80014a8:	6ddb      	ldr	r3, [r3, #92]	@ 0x5c
 80014aa:	2202      	movs	r2, #2
 80014ac:	4013      	ands	r3, r2
 80014ae:	d100      	bne.n	80014b2 <HAL_RCC_OscConfig+0x31e>
 80014b0:	e0b6      	b.n	8001620 <HAL_RCC_OscConfig+0x48c>
 80014b2:	687b      	ldr	r3, [r7, #4]
 80014b4:	689b      	ldr	r3, [r3, #8]
 80014b6:	2b00      	cmp	r3, #0
 80014b8:	d000      	beq.n	80014bc <HAL_RCC_OscConfig+0x328>
 80014ba:	e0b1      	b.n	8001620 <HAL_RCC_OscConfig+0x48c>
 80014bc:	2301      	movs	r3, #1
 80014be:	e166      	b.n	800178e <HAL_RCC_OscConfig+0x5fa>
 80014c0:	40021000 	.word	0x40021000
 80014c4:	fffeffff 	.word	0xfffeffff
 80014c8:	fffbffff 	.word	0xfffbffff
 80014cc:	ffff80ff 	.word	0xffff80ff
 80014d0:	ffffc7ff 	.word	0xffffc7ff
 80014d4:	00f42400 	.word	0x00f42400
 80014d8:	20000000 	.word	0x20000000
 80014dc:	20000004 	.word	0x20000004
 80014e0:	fffffeff 	.word	0xfffffeff
 80014e4:	4bac      	ldr	r3, [pc, #688]	@ (8001798 <HAL_RCC_OscConfig+0x604>)
 80014e6:	6bda      	ldr	r2, [r3, #60]	@ 0x3c
 80014e8:	2380      	movs	r3, #128	@ 0x80
 80014ea:	055b      	lsls	r3, r3, #21
 80014ec:	4013      	ands	r3, r2
 80014ee:	d101      	bne.n	80014f4 <HAL_RCC_OscConfig+0x360>
 80014f0:	2301      	movs	r3, #1
 80014f2:	e000      	b.n	80014f6 <HAL_RCC_OscConfig+0x362>
 80014f4:	2300      	movs	r3, #0
 80014f6:	2b00      	cmp	r3, #0
 80014f8:	d011      	beq.n	800151e <HAL_RCC_OscConfig+0x38a>
 80014fa:	4ba7      	ldr	r3, [pc, #668]	@ (8001798 <HAL_RCC_OscConfig+0x604>)
 80014fc:	6bda      	ldr	r2, [r3, #60]	@ 0x3c
 80014fe:	4ba6      	ldr	r3, [pc, #664]	@ (8001798 <HAL_RCC_OscConfig+0x604>)
 8001500:	2180      	movs	r1, #128	@ 0x80
 8001502:	0549      	lsls	r1, r1, #21
 8001504:	430a      	orrs	r2, r1
 8001506:	63da      	str	r2, [r3, #60]	@ 0x3c
 8001508:	4ba3      	ldr	r3, [pc, #652]	@ (8001798 <HAL_RCC_OscConfig+0x604>)
 800150a:	6bda      	ldr	r2, [r3, #60]	@ 0x3c
 800150c:	2380      	movs	r3, #128	@ 0x80
 800150e:	055b      	lsls	r3, r3, #21
 8001510:	4013      	ands	r3, r2
 8001512:	60fb      	str	r3, [r7, #12]
 8001514:	68fb      	ldr	r3, [r7, #12]
 8001516:	231f      	movs	r3, #31
 8001518:	18fb      	adds	r3, r7, r3
 800151a:	2201      	movs	r2, #1
 800151c:	701a      	strb	r2, [r3, #0]
 800151e:	4b9f      	ldr	r3, [pc, #636]	@ (800179c <HAL_RCC_OscConfig+0x608>)
 8001520:	681a      	ldr	r2, [r3, #0]
 8001522:	2380      	movs	r3, #128	@ 0x80
 8001524:	005b      	lsls	r3, r3, #1
 8001526:	4013      	ands	r3, r2
 8001528:	d11a      	bne.n	8001560 <HAL_RCC_OscConfig+0x3cc>
 800152a:	4b9c      	ldr	r3, [pc, #624]	@ (800179c <HAL_RCC_OscConfig+0x608>)
 800152c:	681a      	ldr	r2, [r3, #0]
 800152e:	4b9b      	ldr	r3, [pc, #620]	@ (800179c <HAL_RCC_OscConfig+0x608>)
 8001530:	2180      	movs	r1, #128	@ 0x80
 8001532:	0049      	lsls	r1, r1, #1
 8001534:	430a      	orrs	r2, r1
 8001536:	601a      	str	r2, [r3, #0]
 8001538:	f7ff fb28 	bl	8000b8c <HAL_GetTick>
 800153c:	0003      	movs	r3, r0
 800153e:	613b      	str	r3, [r7, #16]
 8001540:	e008      	b.n	8001554 <HAL_RCC_OscConfig+0x3c0>
 8001542:	f7ff fb23 	bl	8000b8c <HAL_GetTick>
 8001546:	0002      	movs	r2, r0
 8001548:	693b      	ldr	r3, [r7, #16]
 800154a:	1ad3      	subs	r3, r2, r3
 800154c:	2b02      	cmp	r3, #2
 800154e:	d901      	bls.n	8001554 <HAL_RCC_OscConfig+0x3c0>
 8001550:	2303      	movs	r3, #3
 8001552:	e11c      	b.n	800178e <HAL_RCC_OscConfig+0x5fa>
 8001554:	4b91      	ldr	r3, [pc, #580]	@ (800179c <HAL_RCC_OscConfig+0x608>)
 8001556:	681a      	ldr	r2, [r3, #0]
 8001558:	2380      	movs	r3, #128	@ 0x80
 800155a:	005b      	lsls	r3, r3, #1
 800155c:	4013      	ands	r3, r2
 800155e:	d0f0      	beq.n	8001542 <HAL_RCC_OscConfig+0x3ae>
 8001560:	687b      	ldr	r3, [r7, #4]
 8001562:	689b      	ldr	r3, [r3, #8]
 8001564:	2b01      	cmp	r3, #1
 8001566:	d106      	bne.n	8001576 <HAL_RCC_OscConfig+0x3e2>
 8001568:	4b8b      	ldr	r3, [pc, #556]	@ (8001798 <HAL_RCC_OscConfig+0x604>)
 800156a:	6dda      	ldr	r2, [r3, #92]	@ 0x5c
 800156c:	4b8a      	ldr	r3, [pc, #552]	@ (8001798 <HAL_RCC_OscConfig+0x604>)
 800156e:	2101      	movs	r1, #1
 8001570:	430a      	orrs	r2, r1
 8001572:	65da      	str	r2, [r3, #92]	@ 0x5c
 8001574:	e01c      	b.n	80015b0 <HAL_RCC_OscConfig+0x41c>
 8001576:	687b      	ldr	r3, [r7, #4]
 8001578:	689b      	ldr	r3, [r3, #8]
 800157a:	2b05      	cmp	r3, #5
 800157c:	d10c      	bne.n	8001598 <HAL_RCC_OscConfig+0x404>
 800157e:	4b86      	ldr	r3, [pc, #536]	@ (8001798 <HAL_RCC_OscConfig+0x604>)
 8001580:	6dda      	ldr	r2, [r3, #92]	@ 0x5c
 8001582:	4b85      	ldr	r3, [pc, #532]	@ (8001798 <HAL_RCC_OscConfig+0x604>)
 8001584:	2104      	movs	r1, #4
 8001586:	430a      	orrs	r2, r1
 8001588:	65da      	str	r2, [r3, #92]	@ 0x5c
 800158a:	4b83      	ldr	r3, [pc, #524]	@ (8001798 <HAL_RCC_OscConfig+0x604>)
 800158c:	6dda      	ldr	r2, [r3, #92]	@ 0x5c
 800158e:	4b82      	ldr	r3, [pc, #520]	@ (8001798 <HAL_RCC_OscConfig+0x604>)
 8001590:	2101      	movs	r1, #1
 8001592:	430a      	orrs	r2, r1
 8001594:	65da      	str	r2, [r3, #92]	@ 0x5c
 8001596:	e00b      	b.n	80015b0 <HAL_RCC_OscConfig+0x41c>
 8001598:	4b7f      	ldr	r3, [pc, #508]	@ (8001798 <HAL_RCC_OscConfig+0x604>)
 800159a:	6dda      	ldr	r2, [r3, #92]	@ 0x5c
 800159c:	4b7e      	ldr	r3, [pc, #504]	@ (8001798 <HAL_RCC_OscConfig+0x604>)
 800159e:	2101      	movs	r1, #1
 80015a0:	438a      	bics	r2, r1
 80015a2:	65da      	str	r2, [r3, #92]	@ 0x5c
 80015a4:	4b7c      	ldr	r3, [pc, #496]	@ (8001798 <HAL_RCC_OscConfig+0x604>)
 80015a6:	6dda      	ldr	r2, [r3, #92]	@ 0x5c
 80015a8:	4b7b      	ldr	r3, [pc, #492]	@ (8001798 <HAL_RCC_OscConfig+0x604>)
 80015aa:	2104      	movs	r1, #4
 80015ac:	438a      	bics	r2, r1
 80015ae:	65da      	str	r2, [r3, #92]	@ 0x5c
 80015b0:	687b      	ldr	r3, [r7, #4]
 80015b2:	689b      	ldr	r3, [r3, #8]
 80015b4:	2b00      	cmp	r3, #0
 80015b6:	d014      	beq.n	80015e2 <HAL_RCC_OscConfig+0x44e>
 80015b8:	f7ff fae8 	bl	8000b8c <HAL_GetTick>
 80015bc:	0003      	movs	r3, r0
 80015be:	613b      	str	r3, [r7, #16]
 80015c0:	e009      	b.n	80015d6 <HAL_RCC_OscConfig+0x442>
 80015c2:	f7ff fae3 	bl	8000b8c <HAL_GetTick>
 80015c6:	0002      	movs	r2, r0
 80015c8:	693b      	ldr	r3, [r7, #16]
 80015ca:	1ad3      	subs	r3, r2, r3
 80015cc:	4a74      	ldr	r2, [pc, #464]	@ (80017a0 <HAL_RCC_OscConfig+0x60c>)
 80015ce:	4293      	cmp	r3, r2
 80015d0:	d901      	bls.n	80015d6 <HAL_RCC_OscConfig+0x442>
 80015d2:	2303      	movs	r3, #3
 80015d4:	e0db      	b.n	800178e <HAL_RCC_OscConfig+0x5fa>
 80015d6:	4b70      	ldr	r3, [pc, #448]	@ (8001798 <HAL_RCC_OscConfig+0x604>)
 80015d8:	6ddb      	ldr	r3, [r3, #92]	@ 0x5c
 80015da:	2202      	movs	r2, #2
 80015dc:	4013      	ands	r3, r2
 80015de:	d0f0      	beq.n	80015c2 <HAL_RCC_OscConfig+0x42e>
 80015e0:	e013      	b.n	800160a <HAL_RCC_OscConfig+0x476>
 80015e2:	f7ff fad3 	bl	8000b8c <HAL_GetTick>
 80015e6:	0003      	movs	r3, r0
 80015e8:	613b      	str	r3, [r7, #16]
 80015ea:	e009      	b.n	8001600 <HAL_RCC_OscConfig+0x46c>
 80015ec:	f7ff face 	bl	8000b8c <HAL_GetTick>
 80015f0:	0002      	movs	r2, r0
 80015f2:	693b      	ldr	r3, [r7, #16]
 80015f4:	1ad3      	subs	r3, r2, r3
 80015f6:	4a6a      	ldr	r2, [pc, #424]	@ (80017a0 <HAL_RCC_OscConfig+0x60c>)
 80015f8:	4293      	cmp	r3, r2
 80015fa:	d901      	bls.n	8001600 <HAL_RCC_OscConfig+0x46c>
 80015fc:	2303      	movs	r3, #3
 80015fe:	e0c6      	b.n	800178e <HAL_RCC_OscConfig+0x5fa>
 8001600:	4b65      	ldr	r3, [pc, #404]	@ (8001798 <HAL_RCC_OscConfig+0x604>)
 8001602:	6ddb      	ldr	r3, [r3, #92]	@ 0x5c
 8001604:	2202      	movs	r2, #2
 8001606:	4013      	ands	r3, r2
 8001608:	d1f0      	bne.n	80015ec <HAL_RCC_OscConfig+0x458>
 800160a:	231f      	movs	r3, #31
 800160c:	18fb      	adds	r3, r7, r3
 800160e:	781b      	ldrb	r3, [r3, #0]
 8001610:	2b01      	cmp	r3, #1
 8001612:	d105      	bne.n	8001620 <HAL_RCC_OscConfig+0x48c>
 8001614:	4b60      	ldr	r3, [pc, #384]	@ (8001798 <HAL_RCC_OscConfig+0x604>)
 8001616:	6bda      	ldr	r2, [r3, #60]	@ 0x3c
 8001618:	4b5f      	ldr	r3, [pc, #380]	@ (8001798 <HAL_RCC_OscConfig+0x604>)
 800161a:	4962      	ldr	r1, [pc, #392]	@ (80017a4 <HAL_RCC_OscConfig+0x610>)
 800161c:	400a      	ands	r2, r1
 800161e:	63da      	str	r2, [r3, #60]	@ 0x3c
 8001620:	687b      	ldr	r3, [r7, #4]
 8001622:	69db      	ldr	r3, [r3, #28]
 8001624:	2b00      	cmp	r3, #0
 8001626:	d100      	bne.n	800162a <HAL_RCC_OscConfig+0x496>
 8001628:	e0b0      	b.n	800178c <HAL_RCC_OscConfig+0x5f8>
 800162a:	4b5b      	ldr	r3, [pc, #364]	@ (8001798 <HAL_RCC_OscConfig+0x604>)
 800162c:	689b      	ldr	r3, [r3, #8]
 800162e:	2238      	movs	r2, #56	@ 0x38
 8001630:	4013      	ands	r3, r2
 8001632:	2b10      	cmp	r3, #16
 8001634:	d100      	bne.n	8001638 <HAL_RCC_OscConfig+0x4a4>
 8001636:	e078      	b.n	800172a <HAL_RCC_OscConfig+0x596>
 8001638:	687b      	ldr	r3, [r7, #4]
 800163a:	69db      	ldr	r3, [r3, #28]
 800163c:	2b02      	cmp	r3, #2
 800163e:	d153      	bne.n	80016e8 <HAL_RCC_OscConfig+0x554>
 8001640:	4b55      	ldr	r3, [pc, #340]	@ (8001798 <HAL_RCC_OscConfig+0x604>)
 8001642:	681a      	ldr	r2, [r3, #0]
 8001644:	4b54      	ldr	r3, [pc, #336]	@ (8001798 <HAL_RCC_OscConfig+0x604>)
 8001646:	4958      	ldr	r1, [pc, #352]	@ (80017a8 <HAL_RCC_OscConfig+0x614>)
 8001648:	400a      	ands	r2, r1
 800164a:	601a      	str	r2, [r3, #0]
 800164c:	f7ff fa9e 	bl	8000b8c <HAL_GetTick>
 8001650:	0003      	movs	r3, r0
 8001652:	613b      	str	r3, [r7, #16]
 8001654:	e008      	b.n	8001668 <HAL_RCC_OscConfig+0x4d4>
 8001656:	f7ff fa99 	bl	8000b8c <HAL_GetTick>
 800165a:	0002      	movs	r2, r0
 800165c:	693b      	ldr	r3, [r7, #16]
 800165e:	1ad3      	subs	r3, r2, r3
 8001660:	2b02      	cmp	r3, #2
 8001662:	d901      	bls.n	8001668 <HAL_RCC_OscConfig+0x4d4>
 8001664:	2303      	movs	r3, #3
 8001666:	e092      	b.n	800178e <HAL_RCC_OscConfig+0x5fa>
 8001668:	4b4b      	ldr	r3, [pc, #300]	@ (8001798 <HAL_RCC_OscConfig+0x604>)
 800166a:	681a      	ldr	r2, [r3, #0]
 800166c:	2380      	movs	r3, #128	@ 0x80
 800166e:	049b      	lsls	r3, r3, #18
 8001670:	4013      	ands	r3, r2
 8001672:	d1f0      	bne.n	8001656 <HAL_RCC_OscConfig+0x4c2>
 8001674:	4b48      	ldr	r3, [pc, #288]	@ (8001798 <HAL_RCC_OscConfig+0x604>)
 8001676:	68db      	ldr	r3, [r3, #12]
 8001678:	4a4c      	ldr	r2, [pc, #304]	@ (80017ac <HAL_RCC_OscConfig+0x618>)
 800167a:	4013      	ands	r3, r2
 800167c:	0019      	movs	r1, r3
 800167e:	687b      	ldr	r3, [r7, #4]
 8001680:	6a1a      	ldr	r2, [r3, #32]
 8001682:	687b      	ldr	r3, [r7, #4]
 8001684:	6a5b      	ldr	r3, [r3, #36]	@ 0x24
 8001686:	431a      	orrs	r2, r3
 8001688:	687b      	ldr	r3, [r7, #4]
 800168a:	6a9b      	ldr	r3, [r3, #40]	@ 0x28
 800168c:	021b      	lsls	r3, r3, #8
 800168e:	431a      	orrs	r2, r3
 8001690:	687b      	ldr	r3, [r7, #4]
 8001692:	6adb      	ldr	r3, [r3, #44]	@ 0x2c
 8001694:	431a      	orrs	r2, r3
 8001696:	687b      	ldr	r3, [r7, #4]
 8001698:	6b1b      	ldr	r3, [r3, #48]	@ 0x30
 800169a:	431a      	orrs	r2, r3
 800169c:	4b3e      	ldr	r3, [pc, #248]	@ (8001798 <HAL_RCC_OscConfig+0x604>)
 800169e:	430a      	orrs	r2, r1
 80016a0:	60da      	str	r2, [r3, #12]
 80016a2:	4b3d      	ldr	r3, [pc, #244]	@ (8001798 <HAL_RCC_OscConfig+0x604>)
 80016a4:	681a      	ldr	r2, [r3, #0]
 80016a6:	4b3c      	ldr	r3, [pc, #240]	@ (8001798 <HAL_RCC_OscConfig+0x604>)
 80016a8:	2180      	movs	r1, #128	@ 0x80
 80016aa:	0449      	lsls	r1, r1, #17
 80016ac:	430a      	orrs	r2, r1
 80016ae:	601a      	str	r2, [r3, #0]
 80016b0:	4b39      	ldr	r3, [pc, #228]	@ (8001798 <HAL_RCC_OscConfig+0x604>)
 80016b2:	68da      	ldr	r2, [r3, #12]
 80016b4:	4b38      	ldr	r3, [pc, #224]	@ (8001798 <HAL_RCC_OscConfig+0x604>)
 80016b6:	2180      	movs	r1, #128	@ 0x80
 80016b8:	0549      	lsls	r1, r1, #21
 80016ba:	430a      	orrs	r2, r1
 80016bc:	60da      	str	r2, [r3, #12]
 80016be:	f7ff fa65 	bl	8000b8c <HAL_GetTick>
 80016c2:	0003      	movs	r3, r0
 80016c4:	613b      	str	r3, [r7, #16]
 80016c6:	e008      	b.n	80016da <HAL_RCC_OscConfig+0x546>
 80016c8:	f7ff fa60 	bl	8000b8c <HAL_GetTick>
 80016cc:	0002      	movs	r2, r0
 80016ce:	693b      	ldr	r3, [r7, #16]
 80016d0:	1ad3      	subs	r3, r2, r3
 80016d2:	2b02      	cmp	r3, #2
 80016d4:	d901      	bls.n	80016da <HAL_RCC_OscConfig+0x546>
 80016d6:	2303      	movs	r3, #3
 80016d8:	e059      	b.n	800178e <HAL_RCC_OscConfig+0x5fa>
 80016da:	4b2f      	ldr	r3, [pc, #188]	@ (8001798 <HAL_RCC_OscConfig+0x604>)
 80016dc:	681a      	ldr	r2, [r3, #0]
 80016de:	2380      	movs	r3, #128	@ 0x80
 80016e0:	049b      	lsls	r3, r3, #18
 80016e2:	4013      	ands	r3, r2
 80016e4:	d0f0      	beq.n	80016c8 <HAL_RCC_OscConfig+0x534>
 80016e6:	e051      	b.n	800178c <HAL_RCC_OscConfig+0x5f8>
 80016e8:	4b2b      	ldr	r3, [pc, #172]	@ (8001798 <HAL_RCC_OscConfig+0x604>)
 80016ea:	681a      	ldr	r2, [r3, #0]
 80016ec:	4b2a      	ldr	r3, [pc, #168]	@ (8001798 <HAL_RCC_OscConfig+0x604>)
 80016ee:	492e      	ldr	r1, [pc, #184]	@ (80017a8 <HAL_RCC_OscConfig+0x614>)
 80016f0:	400a      	ands	r2, r1
 80016f2:	601a      	str	r2, [r3, #0]
 80016f4:	f7ff fa4a 	bl	8000b8c <HAL_GetTick>
 80016f8:	0003      	movs	r3, r0
 80016fa:	613b      	str	r3, [r7, #16]
 80016fc:	e008      	b.n	8001710 <HAL_RCC_OscConfig+0x57c>
 80016fe:	f7ff fa45 	bl	8000b8c <HAL_GetTick>
 8001702:	0002      	movs	r2, r0
 8001704:	693b      	ldr	r3, [r7, #16]
 8001706:	1ad3      	subs	r3, r2, r3
 8001708:	2b02      	cmp	r3, #2
 800170a:	d901      	bls.n	8001710 <HAL_RCC_OscConfig+0x57c>
 800170c:	2303      	movs	r3, #3
 800170e:	e03e      	b.n	800178e <HAL_RCC_OscConfig+0x5fa>
 8001710:	4b21      	ldr	r3, [pc, #132]	@ (8001798 <HAL_RCC_OscConfig+0x604>)
 8001712:	681a      	ldr	r2, [r3, #0]
 8001714:	2380      	movs	r3, #128	@ 0x80
 8001716:	049b      	lsls	r3, r3, #18
 8001718:	4013      	ands	r3, r2
 800171a:	d1f0      	bne.n	80016fe <HAL_RCC_OscConfig+0x56a>
 800171c:	4b1e      	ldr	r3, [pc, #120]	@ (8001798 <HAL_RCC_OscConfig+0x604>)
 800171e:	68da      	ldr	r2, [r3, #12]
 8001720:	4b1d      	ldr	r3, [pc, #116]	@ (8001798 <HAL_RCC_OscConfig+0x604>)
 8001722:	4923      	ldr	r1, [pc, #140]	@ (80017b0 <HAL_RCC_OscConfig+0x61c>)
 8001724:	400a      	ands	r2, r1
 8001726:	60da      	str	r2, [r3, #12]
 8001728:	e030      	b.n	800178c <HAL_RCC_OscConfig+0x5f8>
 800172a:	687b      	ldr	r3, [r7, #4]
 800172c:	69db      	ldr	r3, [r3, #28]
 800172e:	2b01      	cmp	r3, #1
 8001730:	d101      	bne.n	8001736 <HAL_RCC_OscConfig+0x5a2>
 8001732:	2301      	movs	r3, #1
 8001734:	e02b      	b.n	800178e <HAL_RCC_OscConfig+0x5fa>
 8001736:	4b18      	ldr	r3, [pc, #96]	@ (8001798 <HAL_RCC_OscConfig+0x604>)
 8001738:	68db      	ldr	r3, [r3, #12]
 800173a:	617b      	str	r3, [r7, #20]
 800173c:	697b      	ldr	r3, [r7, #20]
 800173e:	2203      	movs	r2, #3
 8001740:	401a      	ands	r2, r3
 8001742:	687b      	ldr	r3, [r7, #4]
 8001744:	6a1b      	ldr	r3, [r3, #32]
 8001746:	429a      	cmp	r2, r3
 8001748:	d11e      	bne.n	8001788 <HAL_RCC_OscConfig+0x5f4>
 800174a:	697b      	ldr	r3, [r7, #20]
 800174c:	2270      	movs	r2, #112	@ 0x70
 800174e:	401a      	ands	r2, r3
 8001750:	687b      	ldr	r3, [r7, #4]
 8001752:	6a5b      	ldr	r3, [r3, #36]	@ 0x24
 8001754:	429a      	cmp	r2, r3
 8001756:	d117      	bne.n	8001788 <HAL_RCC_OscConfig+0x5f4>
 8001758:	697a      	ldr	r2, [r7, #20]
 800175a:	23fe      	movs	r3, #254	@ 0xfe
 800175c:	01db      	lsls	r3, r3, #7
 800175e:	401a      	ands	r2, r3
 8001760:	687b      	ldr	r3, [r7, #4]
 8001762:	6a9b      	ldr	r3, [r3, #40]	@ 0x28
 8001764:	021b      	lsls	r3, r3, #8
 8001766:	429a      	cmp	r2, r3
 8001768:	d10e      	bne.n	8001788 <HAL_RCC_OscConfig+0x5f4>
 800176a:	697a      	ldr	r2, [r7, #20]
 800176c:	23f8      	movs	r3, #248	@ 0xf8
 800176e:	039b      	lsls	r3, r3, #14
 8001770:	401a      	ands	r2, r3
 8001772:	687b      	ldr	r3, [r7, #4]
 8001774:	6adb      	ldr	r3, [r3, #44]	@ 0x2c
 8001776:	429a      	cmp	r2, r3
 8001778:	d106      	bne.n	8001788 <HAL_RCC_OscConfig+0x5f4>
 800177a:	697b      	ldr	r3, [r7, #20]
 800177c:	0f5b      	lsrs	r3, r3, #29
 800177e:	075a      	lsls	r2, r3, #29
 8001780:	687b      	ldr	r3, [r7, #4]
 8001782:	6b1b      	ldr	r3, [r3, #48]	@ 0x30
 8001784:	429a      	cmp	r2, r3
 8001786:	d001      	beq.n	800178c <HAL_RCC_OscConfig+0x5f8>
 8001788:	2301      	movs	r3, #1
 800178a:	e000      	b.n	800178e <HAL_RCC_OscConfig+0x5fa>
 800178c:	2300      	movs	r3, #0
 800178e:	0018      	movs	r0, r3
 8001790:	46bd      	mov	sp, r7
 8001792:	b008      	add	sp, #32
 8001794:	bd80      	pop	{r7, pc}
 8001796:	46c0      	nop			@ (mov r8, r8)
 8001798:	40021000 	.word	0x40021000
 800179c:	40007000 	.word	0x40007000
 80017a0:	00001388 	.word	0x00001388
 80017a4:	efffffff 	.word	0xefffffff
 80017a8:	feffffff 	.word	0xfeffffff
 80017ac:	1fc1808c 	.word	0x1fc1808c
 80017b0:	effefffc 	.word	0xeffefffc

080017b4 <HAL_RCC_ClockConfig>:
 80017b4:	b580      	push	{r7, lr}
 80017b6:	b084      	sub	sp, #16
 80017b8:	af00      	add	r7, sp, #0
 80017ba:	6078      	str	r0, [r7, #4]
 80017bc:	6039      	str	r1, [r7, #0]
 80017be:	687b      	ldr	r3, [r7, #4]
 80017c0:	2b00      	cmp	r3, #0
 80017c2:	d101      	bne.n	80017c8 <HAL_RCC_ClockConfig+0x14>
 80017c4:	2301      	movs	r3, #1
 80017c6:	e0e9      	b.n	800199c <HAL_RCC_ClockConfig+0x1e8>
 80017c8:	4b76      	ldr	r3, [pc, #472]	@ (80019a4 <HAL_RCC_ClockConfig+0x1f0>)
 80017ca:	681b      	ldr	r3, [r3, #0]
 80017cc:	2207      	movs	r2, #7
 80017ce:	4013      	ands	r3, r2
 80017d0:	683a      	ldr	r2, [r7, #0]
 80017d2:	429a      	cmp	r2, r3
 80017d4:	d91e      	bls.n	8001814 <HAL_RCC_ClockConfig+0x60>
 80017d6:	4b73      	ldr	r3, [pc, #460]	@ (80019a4 <HAL_RCC_ClockConfig+0x1f0>)
 80017d8:	681b      	ldr	r3, [r3, #0]
 80017da:	2207      	movs	r2, #7
 80017dc:	4393      	bics	r3, r2
 80017de:	0019      	movs	r1, r3
 80017e0:	4b70      	ldr	r3, [pc, #448]	@ (80019a4 <HAL_RCC_ClockConfig+0x1f0>)
 80017e2:	683a      	ldr	r2, [r7, #0]
 80017e4:	430a      	orrs	r2, r1
 80017e6:	601a      	str	r2, [r3, #0]
 80017e8:	f7ff f9d0 	bl	8000b8c <HAL_GetTick>
 80017ec:	0003      	movs	r3, r0
 80017ee:	60fb      	str	r3, [r7, #12]
 80017f0:	e009      	b.n	8001806 <HAL_RCC_ClockConfig+0x52>
 80017f2:	f7ff f9cb 	bl	8000b8c <HAL_GetTick>
 80017f6:	0002      	movs	r2, r0
 80017f8:	68fb      	ldr	r3, [r7, #12]
 80017fa:	1ad3      	subs	r3, r2, r3
 80017fc:	4a6a      	ldr	r2, [pc, #424]	@ (80019a8 <HAL_RCC_ClockConfig+0x1f4>)
 80017fe:	4293      	cmp	r3, r2
 8001800:	d901      	bls.n	8001806 <HAL_RCC_ClockConfig+0x52>
 8001802:	2303      	movs	r3, #3
 8001804:	e0ca      	b.n	800199c <HAL_RCC_ClockConfig+0x1e8>
 8001806:	4b67      	ldr	r3, [pc, #412]	@ (80019a4 <HAL_RCC_ClockConfig+0x1f0>)
 8001808:	681b      	ldr	r3, [r3, #0]
 800180a:	2207      	movs	r2, #7
 800180c:	4013      	ands	r3, r2
 800180e:	683a      	ldr	r2, [r7, #0]
 8001810:	429a      	cmp	r2, r3
 8001812:	d1ee      	bne.n	80017f2 <HAL_RCC_ClockConfig+0x3e>
 8001814:	687b      	ldr	r3, [r7, #4]
 8001816:	681b      	ldr	r3, [r3, #0]
 8001818:	2202      	movs	r2, #2
 800181a:	4013      	ands	r3, r2
 800181c:	d015      	beq.n	800184a <HAL_RCC_ClockConfig+0x96>
 800181e:	687b      	ldr	r3, [r7, #4]
 8001820:	681b      	ldr	r3, [r3, #0]
 8001822:	2204      	movs	r2, #4
 8001824:	4013      	ands	r3, r2
 8001826:	d006      	beq.n	8001836 <HAL_RCC_ClockConfig+0x82>
 8001828:	4b60      	ldr	r3, [pc, #384]	@ (80019ac <HAL_RCC_ClockConfig+0x1f8>)
 800182a:	689a      	ldr	r2, [r3, #8]
 800182c:	4b5f      	ldr	r3, [pc, #380]	@ (80019ac <HAL_RCC_ClockConfig+0x1f8>)
 800182e:	21e0      	movs	r1, #224	@ 0xe0
 8001830:	01c9      	lsls	r1, r1, #7
 8001832:	430a      	orrs	r2, r1
 8001834:	609a      	str	r2, [r3, #8]
 8001836:	4b5d      	ldr	r3, [pc, #372]	@ (80019ac <HAL_RCC_ClockConfig+0x1f8>)
 8001838:	689b      	ldr	r3, [r3, #8]
 800183a:	4a5d      	ldr	r2, [pc, #372]	@ (80019b0 <HAL_RCC_ClockConfig+0x1fc>)
 800183c:	4013      	ands	r3, r2
 800183e:	0019      	movs	r1, r3
 8001840:	687b      	ldr	r3, [r7, #4]
 8001842:	689a      	ldr	r2, [r3, #8]
 8001844:	4b59      	ldr	r3, [pc, #356]	@ (80019ac <HAL_RCC_ClockConfig+0x1f8>)
 8001846:	430a      	orrs	r2, r1
 8001848:	609a      	str	r2, [r3, #8]
 800184a:	687b      	ldr	r3, [r7, #4]
 800184c:	681b      	ldr	r3, [r3, #0]
 800184e:	2201      	movs	r2, #1
 8001850:	4013      	ands	r3, r2
 8001852:	d057      	beq.n	8001904 <HAL_RCC_ClockConfig+0x150>
 8001854:	687b      	ldr	r3, [r7, #4]
 8001856:	685b      	ldr	r3, [r3, #4]
 8001858:	2b01      	cmp	r3, #1
 800185a:	d107      	bne.n	800186c <HAL_RCC_ClockConfig+0xb8>
 800185c:	4b53      	ldr	r3, [pc, #332]	@ (80019ac <HAL_RCC_ClockConfig+0x1f8>)
 800185e:	681a      	ldr	r2, [r3, #0]
 8001860:	2380      	movs	r3, #128	@ 0x80
 8001862:	029b      	lsls	r3, r3, #10
 8001864:	4013      	ands	r3, r2
 8001866:	d12b      	bne.n	80018c0 <HAL_RCC_ClockConfig+0x10c>
 8001868:	2301      	movs	r3, #1
 800186a:	e097      	b.n	800199c <HAL_RCC_ClockConfig+0x1e8>
 800186c:	687b      	ldr	r3, [r7, #4]
 800186e:	685b      	ldr	r3, [r3, #4]
 8001870:	2b02      	cmp	r3, #2
 8001872:	d107      	bne.n	8001884 <HAL_RCC_ClockConfig+0xd0>
 8001874:	4b4d      	ldr	r3, [pc, #308]	@ (80019ac <HAL_RCC_ClockConfig+0x1f8>)
 8001876:	681a      	ldr	r2, [r3, #0]
 8001878:	2380      	movs	r3, #128	@ 0x80
 800187a:	049b      	lsls	r3, r3, #18
 800187c:	4013      	ands	r3, r2
 800187e:	d11f      	bne.n	80018c0 <HAL_RCC_ClockConfig+0x10c>
 8001880:	2301      	movs	r3, #1
 8001882:	e08b      	b.n	800199c <HAL_RCC_ClockConfig+0x1e8>
 8001884:	687b      	ldr	r3, [r7, #4]
 8001886:	685b      	ldr	r3, [r3, #4]
 8001888:	2b00      	cmp	r3, #0
 800188a:	d107      	bne.n	800189c <HAL_RCC_ClockConfig+0xe8>
 800188c:	4b47      	ldr	r3, [pc, #284]	@ (80019ac <HAL_RCC_ClockConfig+0x1f8>)
 800188e:	681a      	ldr	r2, [r3, #0]
 8001890:	2380      	movs	r3, #128	@ 0x80
 8001892:	00db      	lsls	r3, r3, #3
 8001894:	4013      	ands	r3, r2
 8001896:	d113      	bne.n	80018c0 <HAL_RCC_ClockConfig+0x10c>
 8001898:	2301      	movs	r3, #1
 800189a:	e07f      	b.n	800199c <HAL_RCC_ClockConfig+0x1e8>
 800189c:	687b      	ldr	r3, [r7, #4]
 800189e:	685b      	ldr	r3, [r3, #4]
 80018a0:	2b03      	cmp	r3, #3
 80018a2:	d106      	bne.n	80018b2 <HAL_RCC_ClockConfig+0xfe>
 80018a4:	4b41      	ldr	r3, [pc, #260]	@ (80019ac <HAL_RCC_ClockConfig+0x1f8>)
 80018a6:	6e1b      	ldr	r3, [r3, #96]	@ 0x60
 80018a8:	2202      	movs	r2, #2
 80018aa:	4013      	ands	r3, r2
 80018ac:	d108      	bne.n	80018c0 <HAL_RCC_ClockConfig+0x10c>
 80018ae:	2301      	movs	r3, #1
 80018b0:	e074      	b.n	800199c <HAL_RCC_ClockConfig+0x1e8>
 80018b2:	4b3e      	ldr	r3, [pc, #248]	@ (80019ac <HAL_RCC_ClockConfig+0x1f8>)
 80018b4:	6ddb      	ldr	r3, [r3, #92]	@ 0x5c
 80018b6:	2202      	movs	r2, #2
 80018b8:	4013      	ands	r3, r2
 80018ba:	d101      	bne.n	80018c0 <HAL_RCC_ClockConfig+0x10c>
 80018bc:	2301      	movs	r3, #1
 80018be:	e06d      	b.n	800199c <HAL_RCC_ClockConfig+0x1e8>
 80018c0:	4b3a      	ldr	r3, [pc, #232]	@ (80019ac <HAL_RCC_ClockConfig+0x1f8>)
 80018c2:	689b      	ldr	r3, [r3, #8]
 80018c4:	2207      	movs	r2, #7
 80018c6:	4393      	bics	r3, r2
 80018c8:	0019      	movs	r1, r3
 80018ca:	687b      	ldr	r3, [r7, #4]
 80018cc:	685a      	ldr	r2, [r3, #4]
 80018ce:	4b37      	ldr	r3, [pc, #220]	@ (80019ac <HAL_RCC_ClockConfig+0x1f8>)
 80018d0:	430a      	orrs	r2, r1
 80018d2:	609a      	str	r2, [r3, #8]
 80018d4:	f7ff f95a 	bl	8000b8c <HAL_GetTick>
 80018d8:	0003      	movs	r3, r0
 80018da:	60fb      	str	r3, [r7, #12]
 80018dc:	e009      	b.n	80018f2 <HAL_RCC_ClockConfig+0x13e>
 80018de:	f7ff f955 	bl	8000b8c <HAL_GetTick>
 80018e2:	0002      	movs	r2, r0
 80018e4:	68fb      	ldr	r3, [r7, #12]
 80018e6:	1ad3      	subs	r3, r2, r3
 80018e8:	4a2f      	ldr	r2, [pc, #188]	@ (80019a8 <HAL_RCC_ClockConfig+0x1f4>)
 80018ea:	4293      	cmp	r3, r2
 80018ec:	d901      	bls.n	80018f2 <HAL_RCC_ClockConfig+0x13e>
 80018ee:	2303      	movs	r3, #3
 80018f0:	e054      	b.n	800199c <HAL_RCC_ClockConfig+0x1e8>
 80018f2:	4b2e      	ldr	r3, [pc, #184]	@ (80019ac <HAL_RCC_ClockConfig+0x1f8>)
 80018f4:	689b      	ldr	r3, [r3, #8]
 80018f6:	2238      	movs	r2, #56	@ 0x38
 80018f8:	401a      	ands	r2, r3
 80018fa:	687b      	ldr	r3, [r7, #4]
 80018fc:	685b      	ldr	r3, [r3, #4]
 80018fe:	00db      	lsls	r3, r3, #3
 8001900:	429a      	cmp	r2, r3
 8001902:	d1ec      	bne.n	80018de <HAL_RCC_ClockConfig+0x12a>
 8001904:	4b27      	ldr	r3, [pc, #156]	@ (80019a4 <HAL_RCC_ClockConfig+0x1f0>)
 8001906:	681b      	ldr	r3, [r3, #0]
 8001908:	2207      	movs	r2, #7
 800190a:	4013      	ands	r3, r2
 800190c:	683a      	ldr	r2, [r7, #0]
 800190e:	429a      	cmp	r2, r3
 8001910:	d21e      	bcs.n	8001950 <HAL_RCC_ClockConfig+0x19c>
 8001912:	4b24      	ldr	r3, [pc, #144]	@ (80019a4 <HAL_RCC_ClockConfig+0x1f0>)
 8001914:	681b      	ldr	r3, [r3, #0]
 8001916:	2207      	movs	r2, #7
 8001918:	4393      	bics	r3, r2
 800191a:	0019      	movs	r1, r3
 800191c:	4b21      	ldr	r3, [pc, #132]	@ (80019a4 <HAL_RCC_ClockConfig+0x1f0>)
 800191e:	683a      	ldr	r2, [r7, #0]
 8001920:	430a      	orrs	r2, r1
 8001922:	601a      	str	r2, [r3, #0]
 8001924:	f7ff f932 	bl	8000b8c <HAL_GetTick>
 8001928:	0003      	movs	r3, r0
 800192a:	60fb      	str	r3, [r7, #12]
 800192c:	e009      	b.n	8001942 <HAL_RCC_ClockConfig+0x18e>
 800192e:	f7ff f92d 	bl	8000b8c <HAL_GetTick>
 8001932:	0002      	movs	r2, r0
 8001934:	68fb      	ldr	r3, [r7, #12]
 8001936:	1ad3      	subs	r3, r2, r3
 8001938:	4a1b      	ldr	r2, [pc, #108]	@ (80019a8 <HAL_RCC_ClockConfig+0x1f4>)
 800193a:	4293      	cmp	r3, r2
 800193c:	d901      	bls.n	8001942 <HAL_RCC_ClockConfig+0x18e>
 800193e:	2303      	movs	r3, #3
 8001940:	e02c      	b.n	800199c <HAL_RCC_ClockConfig+0x1e8>
 8001942:	4b18      	ldr	r3, [pc, #96]	@ (80019a4 <HAL_RCC_ClockConfig+0x1f0>)
 8001944:	681b      	ldr	r3, [r3, #0]
 8001946:	2207      	movs	r2, #7
 8001948:	4013      	ands	r3, r2
 800194a:	683a      	ldr	r2, [r7, #0]
 800194c:	429a      	cmp	r2, r3
 800194e:	d1ee      	bne.n	800192e <HAL_RCC_ClockConfig+0x17a>
 8001950:	687b      	ldr	r3, [r7, #4]
 8001952:	681b      	ldr	r3, [r3, #0]
 8001954:	2204      	movs	r2, #4
 8001956:	4013      	ands	r3, r2
 8001958:	d009      	beq.n	800196e <HAL_RCC_ClockConfig+0x1ba>
 800195a:	4b14      	ldr	r3, [pc, #80]	@ (80019ac <HAL_RCC_ClockConfig+0x1f8>)
 800195c:	689b      	ldr	r3, [r3, #8]
 800195e:	4a15      	ldr	r2, [pc, #84]	@ (80019b4 <HAL_RCC_ClockConfig+0x200>)
 8001960:	4013      	ands	r3, r2
 8001962:	0019      	movs	r1, r3
 8001964:	687b      	ldr	r3, [r7, #4]
 8001966:	68da      	ldr	r2, [r3, #12]
 8001968:	4b10      	ldr	r3, [pc, #64]	@ (80019ac <HAL_RCC_ClockConfig+0x1f8>)
 800196a:	430a      	orrs	r2, r1
 800196c:	609a      	str	r2, [r3, #8]
 800196e:	f000 f829 	bl	80019c4 <HAL_RCC_GetSysClockFreq>
 8001972:	0001      	movs	r1, r0
 8001974:	4b0d      	ldr	r3, [pc, #52]	@ (80019ac <HAL_RCC_ClockConfig+0x1f8>)
 8001976:	689b      	ldr	r3, [r3, #8]
 8001978:	0a1b      	lsrs	r3, r3, #8
 800197a:	220f      	movs	r2, #15
 800197c:	401a      	ands	r2, r3
 800197e:	4b0e      	ldr	r3, [pc, #56]	@ (80019b8 <HAL_RCC_ClockConfig+0x204>)
 8001980:	0092      	lsls	r2, r2, #2
 8001982:	58d3      	ldr	r3, [r2, r3]
 8001984:	221f      	movs	r2, #31
 8001986:	4013      	ands	r3, r2
 8001988:	000a      	movs	r2, r1
 800198a:	40da      	lsrs	r2, r3
 800198c:	4b0b      	ldr	r3, [pc, #44]	@ (80019bc <HAL_RCC_ClockConfig+0x208>)
 800198e:	601a      	str	r2, [r3, #0]
 8001990:	4b0b      	ldr	r3, [pc, #44]	@ (80019c0 <HAL_RCC_ClockConfig+0x20c>)
 8001992:	681b      	ldr	r3, [r3, #0]
 8001994:	0018      	movs	r0, r3
 8001996:	f7ff f89d 	bl	8000ad4 <HAL_InitTick>
 800199a:	0003      	movs	r3, r0
 800199c:	0018      	movs	r0, r3
 800199e:	46bd      	mov	sp, r7
 80019a0:	b004      	add	sp, #16
 80019a2:	bd80      	pop	{r7, pc}
 80019a4:	40022000 	.word	0x40022000
 80019a8:	00001388 	.word	0x00001388
 80019ac:	40021000 	.word	0x40021000
 80019b0:	fffff0ff 	.word	0xfffff0ff
 80019b4:	ffff8fff 	.word	0xffff8fff
 80019b8:	08001b38 	.word	0x08001b38
 80019bc:	20000000 	.word	0x20000000
 80019c0:	20000004 	.word	0x20000004

080019c4 <HAL_RCC_GetSysClockFreq>:
 80019c4:	b580      	push	{r7, lr}
 80019c6:	b086      	sub	sp, #24
 80019c8:	af00      	add	r7, sp, #0
 80019ca:	4b3c      	ldr	r3, [pc, #240]	@ (8001abc <HAL_RCC_GetSysClockFreq+0xf8>)
 80019cc:	689b      	ldr	r3, [r3, #8]
 80019ce:	2238      	movs	r2, #56	@ 0x38
 80019d0:	4013      	ands	r3, r2
 80019d2:	d10f      	bne.n	80019f4 <HAL_RCC_GetSysClockFreq+0x30>
 80019d4:	4b39      	ldr	r3, [pc, #228]	@ (8001abc <HAL_RCC_GetSysClockFreq+0xf8>)
 80019d6:	681b      	ldr	r3, [r3, #0]
 80019d8:	0adb      	lsrs	r3, r3, #11
 80019da:	2207      	movs	r2, #7
 80019dc:	4013      	ands	r3, r2
 80019de:	2201      	movs	r2, #1
 80019e0:	409a      	lsls	r2, r3
 80019e2:	0013      	movs	r3, r2
 80019e4:	603b      	str	r3, [r7, #0]
 80019e6:	6839      	ldr	r1, [r7, #0]
 80019e8:	4835      	ldr	r0, [pc, #212]	@ (8001ac0 <HAL_RCC_GetSysClockFreq+0xfc>)
 80019ea:	f7fe fb89 	bl	8000100 <__udivsi3>
 80019ee:	0003      	movs	r3, r0
 80019f0:	613b      	str	r3, [r7, #16]
 80019f2:	e05d      	b.n	8001ab0 <HAL_RCC_GetSysClockFreq+0xec>
 80019f4:	4b31      	ldr	r3, [pc, #196]	@ (8001abc <HAL_RCC_GetSysClockFreq+0xf8>)
 80019f6:	689b      	ldr	r3, [r3, #8]
 80019f8:	2238      	movs	r2, #56	@ 0x38
 80019fa:	4013      	ands	r3, r2
 80019fc:	2b08      	cmp	r3, #8
 80019fe:	d102      	bne.n	8001a06 <HAL_RCC_GetSysClockFreq+0x42>
 8001a00:	4b30      	ldr	r3, [pc, #192]	@ (8001ac4 <HAL_RCC_GetSysClockFreq+0x100>)
 8001a02:	613b      	str	r3, [r7, #16]
 8001a04:	e054      	b.n	8001ab0 <HAL_RCC_GetSysClockFreq+0xec>
 8001a06:	4b2d      	ldr	r3, [pc, #180]	@ (8001abc <HAL_RCC_GetSysClockFreq+0xf8>)
 8001a08:	689b      	ldr	r3, [r3, #8]
 8001a0a:	2238      	movs	r2, #56	@ 0x38
 8001a0c:	4013      	ands	r3, r2
 8001a0e:	2b10      	cmp	r3, #16
 8001a10:	d138      	bne.n	8001a84 <HAL_RCC_GetSysClockFreq+0xc0>
 8001a12:	4b2a      	ldr	r3, [pc, #168]	@ (8001abc <HAL_RCC_GetSysClockFreq+0xf8>)
 8001a14:	68db      	ldr	r3, [r3, #12]
 8001a16:	2203      	movs	r2, #3
 8001a18:	4013      	ands	r3, r2
 8001a1a:	60fb      	str	r3, [r7, #12]
 8001a1c:	4b27      	ldr	r3, [pc, #156]	@ (8001abc <HAL_RCC_GetSysClockFreq+0xf8>)
 8001a1e:	68db      	ldr	r3, [r3, #12]
 8001a20:	091b      	lsrs	r3, r3, #4
 8001a22:	2207      	movs	r2, #7
 8001a24:	4013      	ands	r3, r2
 8001a26:	3301      	adds	r3, #1
 8001a28:	60bb      	str	r3, [r7, #8]
 8001a2a:	68fb      	ldr	r3, [r7, #12]
 8001a2c:	2b03      	cmp	r3, #3
 8001a2e:	d10d      	bne.n	8001a4c <HAL_RCC_GetSysClockFreq+0x88>
 8001a30:	68b9      	ldr	r1, [r7, #8]
 8001a32:	4824      	ldr	r0, [pc, #144]	@ (8001ac4 <HAL_RCC_GetSysClockFreq+0x100>)
 8001a34:	f7fe fb64 	bl	8000100 <__udivsi3>
 8001a38:	0003      	movs	r3, r0
 8001a3a:	0019      	movs	r1, r3
 8001a3c:	4b1f      	ldr	r3, [pc, #124]	@ (8001abc <HAL_RCC_GetSysClockFreq+0xf8>)
 8001a3e:	68db      	ldr	r3, [r3, #12]
 8001a40:	0a1b      	lsrs	r3, r3, #8
 8001a42:	227f      	movs	r2, #127	@ 0x7f
 8001a44:	4013      	ands	r3, r2
 8001a46:	434b      	muls	r3, r1
 8001a48:	617b      	str	r3, [r7, #20]
 8001a4a:	e00d      	b.n	8001a68 <HAL_RCC_GetSysClockFreq+0xa4>
 8001a4c:	68b9      	ldr	r1, [r7, #8]
 8001a4e:	481c      	ldr	r0, [pc, #112]	@ (8001ac0 <HAL_RCC_GetSysClockFreq+0xfc>)
 8001a50:	f7fe fb56 	bl	8000100 <__udivsi3>
 8001a54:	0003      	movs	r3, r0
 8001a56:	0019      	movs	r1, r3
 8001a58:	4b18      	ldr	r3, [pc, #96]	@ (8001abc <HAL_RCC_GetSysClockFreq+0xf8>)
 8001a5a:	68db      	ldr	r3, [r3, #12]
 8001a5c:	0a1b      	lsrs	r3, r3, #8
 8001a5e:	227f      	movs	r2, #127	@ 0x7f
 8001a60:	4013      	ands	r3, r2
 8001a62:	434b      	muls	r3, r1
 8001a64:	617b      	str	r3, [r7, #20]
 8001a66:	46c0      	nop			@ (mov r8, r8)
 8001a68:	4b14      	ldr	r3, [pc, #80]	@ (8001abc <HAL_RCC_GetSysClockFreq+0xf8>)
 8001a6a:	68db      	ldr	r3, [r3, #12]
 8001a6c:	0f5b      	lsrs	r3, r3, #29
 8001a6e:	2207      	movs	r2, #7
 8001a70:	4013      	ands	r3, r2
 8001a72:	3301      	adds	r3, #1
 8001a74:	607b      	str	r3, [r7, #4]
 8001a76:	6879      	ldr	r1, [r7, #4]
 8001a78:	6978      	ldr	r0, [r7, #20]
 8001a7a:	f7fe fb41 	bl	8000100 <__udivsi3>
 8001a7e:	0003      	movs	r3, r0
 8001a80:	613b      	str	r3, [r7, #16]
 8001a82:	e015      	b.n	8001ab0 <HAL_RCC_GetSysClockFreq+0xec>
 8001a84:	4b0d      	ldr	r3, [pc, #52]	@ (8001abc <HAL_RCC_GetSysClockFreq+0xf8>)
 8001a86:	689b      	ldr	r3, [r3, #8]
 8001a88:	2238      	movs	r2, #56	@ 0x38
 8001a8a:	4013      	ands	r3, r2
 8001a8c:	2b20      	cmp	r3, #32
 8001a8e:	d103      	bne.n	8001a98 <HAL_RCC_GetSysClockFreq+0xd4>
 8001a90:	2380      	movs	r3, #128	@ 0x80
 8001a92:	021b      	lsls	r3, r3, #8
 8001a94:	613b      	str	r3, [r7, #16]
 8001a96:	e00b      	b.n	8001ab0 <HAL_RCC_GetSysClockFreq+0xec>
 8001a98:	4b08      	ldr	r3, [pc, #32]	@ (8001abc <HAL_RCC_GetSysClockFreq+0xf8>)
 8001a9a:	689b      	ldr	r3, [r3, #8]
 8001a9c:	2238      	movs	r2, #56	@ 0x38
 8001a9e:	4013      	ands	r3, r2
 8001aa0:	2b18      	cmp	r3, #24
 8001aa2:	d103      	bne.n	8001aac <HAL_RCC_GetSysClockFreq+0xe8>
 8001aa4:	23fa      	movs	r3, #250	@ 0xfa
 8001aa6:	01db      	lsls	r3, r3, #7
 8001aa8:	613b      	str	r3, [r7, #16]
 8001aaa:	e001      	b.n	8001ab0 <HAL_RCC_GetSysClockFreq+0xec>
 8001aac:	2300      	movs	r3, #0
 8001aae:	613b      	str	r3, [r7, #16]
 8001ab0:	693b      	ldr	r3, [r7, #16]
 8001ab2:	0018      	movs	r0, r3
 8001ab4:	46bd      	mov	sp, r7
 8001ab6:	b006      	add	sp, #24
 8001ab8:	bd80      	pop	{r7, pc}
 8001aba:	46c0      	nop			@ (mov r8, r8)
 8001abc:	40021000 	.word	0x40021000
 8001ac0:	00f42400 	.word	0x00f42400
 8001ac4:	007a1200 	.word	0x007a1200

08001ac8 <memset>:
 8001ac8:	0003      	movs	r3, r0
 8001aca:	1882      	adds	r2, r0, r2
 8001acc:	4293      	cmp	r3, r2
 8001ace:	d100      	bne.n	8001ad2 <memset+0xa>
 8001ad0:	4770      	bx	lr
 8001ad2:	7019      	strb	r1, [r3, #0]
 8001ad4:	3301      	adds	r3, #1
 8001ad6:	e7f9      	b.n	8001acc <memset+0x4>

08001ad8 <__libc_init_array>:
 8001ad8:	b570      	push	{r4, r5, r6, lr}
 8001ada:	2600      	movs	r6, #0
 8001adc:	4c0c      	ldr	r4, [pc, #48]	@ (8001b10 <__libc_init_array+0x38>)
 8001ade:	4d0d      	ldr	r5, [pc, #52]	@ (8001b14 <__libc_init_array+0x3c>)
 8001ae0:	1b64      	subs	r4, r4, r5
 8001ae2:	10a4      	asrs	r4, r4, #2
 8001ae4:	42a6      	cmp	r6, r4
 8001ae6:	d109      	bne.n	8001afc <__libc_init_array+0x24>
 8001ae8:	2600      	movs	r6, #0
 8001aea:	f000 f819 	bl	8001b20 <_init>
 8001aee:	4c0a      	ldr	r4, [pc, #40]	@ (8001b18 <__libc_init_array+0x40>)
 8001af0:	4d0a      	ldr	r5, [pc, #40]	@ (8001b1c <__libc_init_array+0x44>)
 8001af2:	1b64      	subs	r4, r4, r5
 8001af4:	10a4      	asrs	r4, r4, #2
 8001af6:	42a6      	cmp	r6, r4
 8001af8:	d105      	bne.n	8001b06 <__libc_init_array+0x2e>
 8001afa:	bd70      	pop	{r4, r5, r6, pc}
 8001afc:	00b3      	lsls	r3, r6, #2
 8001afe:	58eb      	ldr	r3, [r5, r3]
 8001b00:	4798      	blx	r3
 8001b02:	3601      	adds	r6, #1
 8001b04:	e7ee      	b.n	8001ae4 <__libc_init_array+0xc>
 8001b06:	00b3      	lsls	r3, r6, #2
 8001b08:	58eb      	ldr	r3, [r5, r3]
 8001b0a:	4798      	blx	r3
 8001b0c:	3601      	adds	r6, #1
 8001b0e:	e7f2      	b.n	8001af6 <__libc_init_array+0x1e>
 8001b10:	08001bac 	.word	0x08001bac
 8001b14:	08001bac 	.word	0x08001bac
 8001b18:	08001bb0 	.word	0x08001bb0
 8001b1c:	08001bac 	.word	0x08001bac

08001b20 <_init>:
 8001b20:	b5f8      	push	{r3, r4, r5, r6, r7, lr}
 8001b22:	46c0      	nop			@ (mov r8, r8)
 8001b24:	bcf8      	pop	{r3, r4, r5, r6, r7}
 8001b26:	bc08      	pop	{r3}
 8001b28:	469e      	mov	lr, r3
 8001b2a:	4770      	bx	lr

08001b2c <_fini>:
 8001b2c:	b5f8      	push	{r3, r4, r5, r6, r7, lr}
 8001b2e:	46c0      	nop			@ (mov r8, r8)
 8001b30:	bcf8      	pop	{r3, r4, r5, r6, r7}
 8001b32:	bc08      	pop	{r3}
 8001b34:	469e      	mov	lr, r3
 8001b36:	4770      	bx	lr
